EXPORTS 
	??_R0?AVbad_alloc@std@@@8 	 DATA
	??_R0?AVbad_array_new_length@std@@@8 	 DATA
	??_R0?AVexception@std@@@8 	 DATA
	??$?0AEBV?$allocator@E@std@@$$V@?$_Compressed_pair@V?$allocator@E@std@@V?$_Vector_val@U?$_Simple_types@E@std@@@2@$00@std@@QEAA@U_One_then_variadic_args_t@1@AEBV?$allocator@E@1@@Z
	??$?0H$0A@@?$duration@_JU?$ratio@$00$0PECEA@@std@@@chrono@std@@QEAA@AEBH@Z
	??$?0N$0A@@?$duration@NU?$ratio@$00$0DLJKMKAA@@std@@@chrono@std@@QEAA@AEBN@Z
	??$?0NU?$ratio@$00$00@std@@$0A@@?$duration@NU?$ratio@$00$0DLJKMKAA@@std@@@chrono@std@@QEAA@AEBV?$duration@NU?$ratio@$00$00@std@@@12@@Z
	??$?0_J$0A@@?$duration@_JU?$ratio@$00$00@std@@@chrono@std@@QEAA@AEB_J@Z
	??$?0_J$0A@@?$duration@_JU?$ratio@$00$0DLJKMKAA@@std@@@chrono@std@@QEAA@AEB_J@Z
	??$?0_J$0A@@?$duration@_JU?$ratio@$00$0JIJGIA@@std@@@chrono@std@@QEAA@AEB_J@Z
	??$?0_JU?$ratio@$00$00@std@@$0A@@?$duration@_JU?$ratio@$00$0DLJKMKAA@@std@@@chrono@std@@QEAA@AEBV?$duration@_JU?$ratio@$00$00@std@@@12@@Z
	??$?0_JU?$ratio@$00$0DLJKMKAA@@std@@$0A@@?$duration@NU?$ratio@$00$0DLJKMKAA@@std@@@chrono@std@@QEAA@AEBV?$duration@_JU?$ratio@$00$0DLJKMKAA@@std@@@12@@Z
	??$?0_JU?$ratio@$00$0JIJGIA@@std@@$0A@@?$duration@_JU?$ratio@$00$0DLJKMKAA@@std@@@chrono@std@@QEAA@AEBV?$duration@_JU?$ratio@$00$0JIJGIA@@std@@@12@@Z
	??$?0_JU?$ratio@$00$0PECEA@@std@@$0A@@?$duration@_JU?$ratio@$00$0DLJKMKAA@@std@@@chrono@std@@QEAA@AEBV?$duration@_JU?$ratio@$00$0PECEA@@std@@@12@@Z
	??$?GUsteady_clock@chrono@std@@V?$duration@_JU?$ratio@$00$0DLJKMKAA@@std@@@12@V312@@chrono@std@@YA?AV?$duration@_JU?$ratio@$00$0DLJKMKAA@@std@@@01@AEBV?$time_point@Usteady_clock@chrono@std@@V?$duration@_JU?$ratio@$00$0DLJKMKAA@@std@@@23@@01@0@Z
	??$?GUsteady_clock@chrono@std@@V?$duration@_JU?$ratio@$00$0DLJKMKAA@@std@@@12@_JU?$ratio@$00$0PECEA@@2@@chrono@std@@YA?AV?$time_point@Usteady_clock@chrono@std@@V?$duration@_JU?$ratio@$00$0DLJKMKAA@@std@@@23@@01@AEBV201@AEBV?$duration@_JU?$ratio@$00$0PECEA@@std@@@01@@Z
	??$?G_JU?$ratio@$00$0DLJKMKAA@@std@@_JU01@@chrono@std@@YA?AV?$duration@_JU?$ratio@$00$0DLJKMKAA@@std@@@01@AEBV201@0@Z
	??$?G_JU?$ratio@$00$0DLJKMKAA@@std@@_JU?$ratio@$00$0PECEA@@1@@chrono@std@@YA?AV?$duration@_JU?$ratio@$00$0DLJKMKAA@@std@@@01@AEBV201@AEBV?$duration@_JU?$ratio@$00$0PECEA@@std@@@01@@Z
	??$?MNU?$ratio@$00$00@std@@_JU?$ratio@$00$0DLJKMKAA@@1@@chrono@std@@YA_NAEBV?$duration@NU?$ratio@$00$00@std@@@01@AEBV?$duration@_JU?$ratio@$00$0DLJKMKAA@@std@@@01@@Z
	??$?MUsteady_clock@chrono@std@@V?$duration@_JU?$ratio@$00$0DLJKMKAA@@std@@@12@V312@@chrono@std@@YA_NAEBV?$time_point@Usteady_clock@chrono@std@@V?$duration@_JU?$ratio@$00$0DLJKMKAA@@std@@@23@@01@0@Z
	??$?M_JU?$ratio@$00$0DLJKMKAA@@std@@_JU01@@chrono@std@@YA_NAEBV?$duration@_JU?$ratio@$00$0DLJKMKAA@@std@@@01@0@Z
	??$?M_JU?$ratio@$00$0PECEA@@std@@_JU01@@chrono@std@@YA_NAEBV?$duration@_JU?$ratio@$00$0PECEA@@std@@@01@0@Z
	??$?NUsteady_clock@chrono@std@@V?$duration@_JU?$ratio@$00$0DLJKMKAA@@std@@@12@V312@@chrono@std@@YA_NAEBV?$time_point@Usteady_clock@chrono@std@@V?$duration@_JU?$ratio@$00$0DLJKMKAA@@std@@@23@@01@0@Z
	??$?O_JU?$ratio@$00$0PECEA@@std@@_JU01@@chrono@std@@YA_NAEBV?$duration@_JU?$ratio@$00$0PECEA@@std@@@01@0@Z
	??$_Allocate@$0BA@U_Default_allocate_traits@std@@$0A@@std@@YAPEAX_K@Z
	??$_Allocate_manually_vector_aligned@U_Default_allocate_traits@std@@@std@@YAPEAX_K@Z
	??$_Construct_n_copies_of_ty@U_Value_init_tag@std@@@?$vector@EV?$allocator@E@std@@@std@@AEAAX_KAEBU_Value_init_tag@1@@Z
	??$_Deallocate@$0BA@$0A@@std@@YAXPEAX_K@Z
	??$_Destroy_range@V?$allocator@E@std@@@std@@YAXPEAEQEAEAEAV?$allocator@E@0@@Z
	??$_Emplace_back@$$V@?$_Uninitialized_backout_al@V?$allocator@E@std@@@std@@QEAAXXZ
	??$_Get_size_of_n@$00@std@@YA_K_K@Z
	??$_To_absolute_time@_JU?$ratio@$00$0PECEA@@std@@@std@@YA?A_PAEBV?$duration@_JU?$ratio@$00$0PECEA@@std@@@chrono@0@@Z
	??$_To_address@PEAE@std@@YA?A_PAEBQEAE@Z
	??$_To_xtime_10_day_clamped@_JU?$ratio@$00$0DLJKMKAA@@std@@@std@@YA_NAEAUxtime@@AEBV?$duration@_JU?$ratio@$00$0DLJKMKAA@@std@@@chrono@0@@Z
	??$_Unfancy@E@std@@YAPEAEPEAE@Z
	??$_Unfancy_maybe_null@E@std@@YAPEAEPEAE@Z
	??$_Uninitialized_value_construct_n@V?$allocator@E@std@@@std@@YAPEAEPEAE_KAEAV?$allocator@E@0@@Z
	??$_Voidify_iter@PEAE@std@@YAPEAXPEAE@Z
	??$_Zero_range@PEAE@std@@YAPEAEQEAE0@Z
	??$construct@E$$V@?$_Default_allocator_traits@V?$allocator@E@std@@@std@@SAXAEAV?$allocator@E@1@QEAE@Z
	??$duration_cast@V?$duration@NU?$ratio@$00$0DLJKMKAA@@std@@@chrono@std@@NU?$ratio@$00$00@3@$0A@@chrono@std@@YA?AV?$duration@NU?$ratio@$00$0DLJKMKAA@@std@@@01@AEBV?$duration@NU?$ratio@$00$00@std@@@01@@Z
	??$duration_cast@V?$duration@NU?$ratio@$00$0DLJKMKAA@@std@@@chrono@std@@_JU?$ratio@$00$0DLJKMKAA@@3@$0A@@chrono@std@@YA?AV?$duration@NU?$ratio@$00$0DLJKMKAA@@std@@@01@AEBV?$duration@_JU?$ratio@$00$0DLJKMKAA@@std@@@01@@Z
	??$duration_cast@V?$duration@_JU?$ratio@$00$00@std@@@chrono@std@@_JU?$ratio@$00$0DLJKMKAA@@3@$0A@@chrono@std@@YA?AV?$duration@_JU?$ratio@$00$00@std@@@01@AEBV?$duration@_JU?$ratio@$00$0DLJKMKAA@@std@@@01@@Z
	??$duration_cast@V?$duration@_JU?$ratio@$00$0DLJKMKAA@@std@@@chrono@std@@_JU?$ratio@$00$00@3@$0A@@chrono@std@@YA?AV?$duration@_JU?$ratio@$00$0DLJKMKAA@@std@@@01@AEBV?$duration@_JU?$ratio@$00$00@std@@@01@@Z
	??$duration_cast@V?$duration@_JU?$ratio@$00$0DLJKMKAA@@std@@@chrono@std@@_JU?$ratio@$00$0DLJKMKAA@@3@$0A@@chrono@std@@YA?AV?$duration@_JU?$ratio@$00$0DLJKMKAA@@std@@@01@AEBV201@@Z
	??$duration_cast@V?$duration@_JU?$ratio@$00$0DLJKMKAA@@std@@@chrono@std@@_JU?$ratio@$00$0JIJGIA@@3@$0A@@chrono@std@@YA?AV?$duration@_JU?$ratio@$00$0DLJKMKAA@@std@@@01@AEBV?$duration@_JU?$ratio@$00$0JIJGIA@@std@@@01@@Z
	??$duration_cast@V?$duration@_JU?$ratio@$00$0DLJKMKAA@@std@@@chrono@std@@_JU?$ratio@$00$0PECEA@@3@$0A@@chrono@std@@YA?AV?$duration@_JU?$ratio@$00$0DLJKMKAA@@std@@@01@AEBV?$duration@_JU?$ratio@$00$0PECEA@@std@@@01@@Z
	??$forward@AEBV?$allocator@E@std@@@std@@YAAEBV?$allocator@E@0@AEBV10@@Z
	??$min@_K@std@@YAAEB_KAEB_K0@Z
	??$sleep_for@_JU?$ratio@$00$0PECEA@@std@@@this_thread@std@@YAXAEBV?$duration@_JU?$ratio@$00$0PECEA@@std@@@chrono@1@@Z
	??$sleep_until@Usteady_clock@chrono@std@@V?$duration@_JU?$ratio@$00$0DLJKMKAA@@std@@@23@@this_thread@std@@YAXAEBV?$time_point@Usteady_clock@chrono@std@@V?$duration@_JU?$ratio@$00$0DLJKMKAA@@std@@@23@@chrono@1@@Z
	??0?$_Uninitialized_backout_al@V?$allocator@E@std@@@std@@QEAA@PEAEAEAV?$allocator@E@1@@Z
	??0?$_Vector_val@U?$_Simple_types@E@std@@@std@@QEAA@XZ
	??0?$allocator@E@std@@QEAA@XZ
	??0?$time_point@Usteady_clock@chrono@std@@V?$duration@_JU?$ratio@$00$0DLJKMKAA@@std@@@23@@chrono@std@@QEAA@AEBV?$duration@_JU?$ratio@$00$0DLJKMKAA@@std@@@12@@Z
	??0?$time_point@Usystem_clock@chrono@std@@V?$duration@_JU?$ratio@$00$0JIJGIA@@std@@@23@@chrono@std@@QEAA@AEBV?$duration@_JU?$ratio@$00$0JIJGIA@@std@@@12@@Z
	??0?$vector@EV?$allocator@E@std@@@std@@QEAA@_KAEBV?$allocator@E@1@@Z
	??0DynamixelDriver@@QEAA@XZ
	??0DynamixelTool@@QEAA@XZ
	??0DynamixelWorkbench@@QEAA@XZ
	??0_Fake_proxy_ptr_impl@std@@QEAA@AEBU_Fake_allocator@1@AEBU_Container_base0@1@@Z
	??0bad_alloc@std@@AEAA@QEBD@Z
	??0bad_alloc@std@@QEAA@AEBV01@@Z
	??0bad_array_new_length@std@@QEAA@AEBV01@@Z
	??0bad_array_new_length@std@@QEAA@XZ
	??0exception@std@@QEAA@AEBV01@@Z
	??0exception@std@@QEAA@QEBDH@Z
	??1?$_Tidy_guard@V?$vector@EV?$allocator@E@std@@@std@@@std@@QEAA@XZ
	??1?$_Uninitialized_backout_al@V?$allocator@E@std@@@std@@QEAA@XZ
	??1?$vector@EV?$allocator@E@std@@@std@@QEAA@XZ
	??1DynamixelDriver@@QEAA@XZ
	??1DynamixelTool@@QEAA@XZ
	??1DynamixelWorkbench@@QEAA@XZ
	??1bad_alloc@std@@UEAA@XZ
	??1bad_array_new_length@std@@UEAA@XZ
	??1exception@std@@UEAA@XZ
	??2@YAPEAX_KPEAX@Z
	??A?$vector@EV?$allocator@E@std@@@std@@QEAAAEAE_K@Z
	??Y?$duration@_JU?$ratio@$00$0DLJKMKAA@@std@@@chrono@std@@QEAAAEAV012@AEBV012@@Z
	??Y?$time_point@Usteady_clock@chrono@std@@V?$duration@_JU?$ratio@$00$0DLJKMKAA@@std@@@23@@chrono@std@@QEAAAEAV012@AEBV?$duration@_JU?$ratio@$00$0DLJKMKAA@@std@@@12@@Z
	??Z?$duration@_JU?$ratio@$00$0DLJKMKAA@@std@@@chrono@std@@QEAAAEAV012@AEBV012@@Z
	?_Adjust_manually_vector_aligned@std@@YAXAEAPEAXAEA_K@Z
	?_Allocate@_Default_allocate_traits@std@@SAPEAX_K@Z
	?_Buy_nonzero@?$vector@EV?$allocator@E@std@@@std@@AEAAX_K@Z
	?_Buy_raw@?$vector@EV?$allocator@E@std@@@std@@AEAAX_K@Z
	?_Destroy@?$vector@EV?$allocator@E@std@@@std@@AEAAXPEAE0@Z
	?_Get_first@?$_Compressed_pair@V?$allocator@E@std@@V?$_Vector_val@U?$_Simple_types@E@std@@@2@$00@std@@QEAAAEAV?$allocator@E@2@XZ
	?_Get_first@?$_Compressed_pair@V?$allocator@E@std@@V?$_Vector_val@U?$_Simple_types@E@std@@@2@$00@std@@QEBAAEBV?$allocator@E@2@XZ
	?_Getal@?$vector@EV?$allocator@E@std@@@std@@AEAAAEAV?$allocator@E@2@XZ
	?_Getal@?$vector@EV?$allocator@E@std@@@std@@AEBAAEBV?$allocator@E@2@XZ
	?_Orphan_all@_Container_base0@std@@QEAAXXZ
	?_Release@?$_Uninitialized_backout_al@V?$allocator@E@std@@@std@@QEAAPEAEXZ
	?_Release@_Fake_proxy_ptr_impl@std@@QEAAXXZ
	?_Throw_bad_array_new_length@std@@YAXXZ
	?_Tidy@?$vector@EV?$allocator@E@std@@@std@@AEAAXXZ
	?_Ufill@?$vector@EV?$allocator@E@std@@@std@@AEAAPEAEPEAE_KU_Value_init_tag@2@@Z
	?_Xlength@?$vector@EV?$allocator@E@std@@@std@@CAXXZ
	?addBulkReadParam@DynamixelDriver@@QEAA_NEGGPEAPEBD@Z
	?addBulkReadParam@DynamixelDriver@@QEAA_NEPEBDPEAPEBD@Z
	?addBulkWriteParam@DynamixelDriver@@QEAA_NEGGHPEAPEBD@Z
	?addBulkWriteParam@DynamixelDriver@@QEAA_NEPEBDHPEAPEBD@Z
	?addDXL@DynamixelTool@@QEAAXE@Z
	?addSyncReadHandler@DynamixelDriver@@QEAA_NEPEBDPEAPEBD@Z
	?addSyncReadHandler@DynamixelDriver@@QEAA_NGGPEAPEBD@Z
	?addSyncWriteHandler@DynamixelDriver@@QEAA_NEPEBDPEAPEBD@Z
	?addSyncWriteHandler@DynamixelDriver@@QEAA_NGGPEAPEBD@Z
	?addTool@DynamixelTool@@QEAA_NGEPEAPEBD@Z
	?addTool@DynamixelTool@@QEAA_NPEBDEPEAPEBD@Z
	?allocate@?$allocator@E@std@@QEAAPEAE_K@Z
	?begin@DynamixelDriver@@QEAA_NPEBDIPEAPEBD@Z
	?bulkRead@DynamixelDriver@@QEAA_NPEAPEBD@Z
	?bulkWrite@DynamixelDriver@@QEAA_NPEAPEBD@Z
	?changeBaudrate@DynamixelWorkbench@@QEAA_NEIPEAPEBD@Z
	?changeID@DynamixelWorkbench@@QEAA_NEEPEAPEBD@Z
	?changeProtocolVersion@DynamixelWorkbench@@QEAA_NEEPEAPEBD@Z
	?clearBulkReadParam@DynamixelDriver@@QEAA_NXZ
	?clearMultiTurn@DynamixelDriver@@QEAA_NEPEAPEBD@Z
	?convertCurrent2Value@DynamixelWorkbench@@QEAAFEM@Z
	?convertCurrent2Value@DynamixelWorkbench@@QEAAFM@Z
	?convertRadian2Value@DynamixelWorkbench@@QEAAHEM@Z
	?convertRadian2Value@DynamixelWorkbench@@QEAAHMHHMM@Z
	?convertValue2Current@DynamixelWorkbench@@QEAAMEF@Z
	?convertValue2Current@DynamixelWorkbench@@QEAAMF@Z
	?convertValue2Load@DynamixelWorkbench@@QEAAMF@Z
	?convertValue2Radian@DynamixelWorkbench@@QEAAMEH@Z
	?convertValue2Radian@DynamixelWorkbench@@QEAAMHHHMM@Z
	?convertValue2Velocity@DynamixelWorkbench@@QEAAMEH@Z
	?convertVelocity2Value@DynamixelWorkbench@@QEAAHEM@Z
	?count@?$duration@NU?$ratio@$00$00@std@@@chrono@std@@QEBANXZ
	?count@?$duration@NU?$ratio@$00$0DLJKMKAA@@std@@@chrono@std@@QEBANXZ
	?count@?$duration@_JU?$ratio@$00$00@std@@@chrono@std@@QEBA_JXZ
	?count@?$duration@_JU?$ratio@$00$0DLJKMKAA@@std@@@chrono@std@@QEBA_JXZ
	?count@?$duration@_JU?$ratio@$00$0JIJGIA@@std@@@chrono@std@@QEBA_JXZ
	?count@?$duration@_JU?$ratio@$00$0PECEA@@std@@@chrono@std@@QEBA_JXZ
	?currentBasedPositionMode@DynamixelWorkbench@@QEAA_NEHPEAPEBD@Z
	?data@?$vector@EV?$allocator@E@std@@@std@@QEAAPEAEXZ
	?deallocate@?$allocator@E@std@@QEAAXQEAE_K@Z
	?getBaudrate@DynamixelDriver@@QEAAIXZ
	?getBulkReadData@DynamixelDriver@@QEAA_NPEAEEPEAG1PEAHPEAPEBD@Z
	?getBulkReadData@DynamixelDriver@@QEAA_NPEAHPEAPEBD@Z
	?getControlItem@DynamixelTool@@QEAAPEBUControlItem@@PEBDPEAPEBD@Z
	?getControlTable@DynamixelDriver@@QEAAPEBUControlItem@@EPEAPEBD@Z
	?getControlTable@DynamixelItem@@YAPEBUControlItem@@G@Z
	?getControlTable@DynamixelTool@@QEAAPEBUControlItem@@XZ
	?getDynamixelBuffer@DynamixelTool@@QEAAEXZ
	?getDynamixelCount@DynamixelTool@@QEAAEXZ
	?getID@DynamixelTool@@QEAAPEBEXZ
	?getItemInfo@DynamixelDriver@@QEAAPEBUControlItem@@EPEBDPEAPEBD@Z
	?getMaxRadian@DynamixelTool@@QEAAMXZ
	?getMinRadian@DynamixelTool@@QEAAMXZ
	?getModelInfo@DynamixelDriver@@QEAAPEBUModelInfo@@EPEAPEBD@Z
	?getModelInfo@DynamixelItem@@YAPEBUModelInfo@@G@Z
	?getModelInfo@DynamixelTool@@QEAAPEBUModelInfo@@XZ
	?getModelName@DynamixelDriver@@QEAAPEBDEPEAPEBD@Z
	?getModelName@DynamixelTool@@QEAAPEBDXZ
	?getModelNumber@DynamixelDriver@@QEAAGEPEAPEBD@Z
	?getModelNumber@DynamixelTool@@QEAAGXZ
	?getParam@DynamixelDriver@@QEAAXHPEAE@Z
	?getPresentPositionData@DynamixelWorkbench@@QEAA_NEPEAHPEAPEBD@Z
	?getPresentVelocityData@DynamixelWorkbench@@QEAA_NEPEAHPEAPEBD@Z
	?getProtocolVersion@DynamixelDriver@@QEAAMXZ
	?getRPM@DynamixelTool@@QEAAMXZ
	?getRadian@DynamixelWorkbench@@QEAA_NEPEAMPEAPEBD@Z
	?getSyncReadData@DynamixelDriver@@QEAA_NEPEAEEGGPEAHPEAPEBD@Z
	?getSyncReadData@DynamixelDriver@@QEAA_NEPEAEEPEAHPEAPEBD@Z
	?getSyncReadData@DynamixelDriver@@QEAA_NEPEAHPEAPEBD@Z
	?getTheNumberOfBulkReadParam@DynamixelDriver@@QEAAEXZ
	?getTheNumberOfControlItem@DynamixelDriver@@QEAAEEPEAPEBD@Z
	?getTheNumberOfControlItem@DynamixelItem@@YAEXZ
	?getTheNumberOfControlItem@DynamixelTool@@QEAAEXZ
	?getTheNumberOfSyncReadHandler@DynamixelDriver@@QEAAEXZ
	?getTheNumberOfSyncWriteHandler@DynamixelDriver@@QEAAEXZ
	?getTool@DynamixelDriver@@AEAAEEPEAPEBD@Z
	?getValueOfMaxRadianPosition@DynamixelTool@@QEAA_JXZ
	?getValueOfMinRadianPosition@DynamixelTool@@QEAA_JXZ
	?getValueOfZeroRadianPosition@DynamixelTool@@QEAA_JXZ
	?getVelocity@DynamixelWorkbench@@QEAA_NEPEAMPEAPEBD@Z
	?goalPosition@DynamixelWorkbench@@QEAA_NEHPEAPEBD@Z
	?goalPosition@DynamixelWorkbench@@QEAA_NEMPEAPEBD@Z
	?goalSpeed@DynamixelWorkbench@@QEAA_NEHPEAPEBD@Z
	?goalVelocity@DynamixelWorkbench@@QEAA_NEHPEAPEBD@Z
	?goalVelocity@DynamixelWorkbench@@QEAA_NEMPEAPEBD@Z
	?init@DynamixelDriver@@QEAA_NPEBDIPEAPEBD@Z
	?initBulkRead@DynamixelDriver@@QEAA_NPEAPEBD@Z
	?initBulkWrite@DynamixelDriver@@QEAA_NPEAPEBD@Z
	?initTool@DynamixelTool@@QEAAXXZ
	?initTools@DynamixelDriver@@AEAAXXZ
	?itemRead@DynamixelWorkbench@@QEAA_NEPEBDPEAHPEAPEBD@Z
	?itemWrite@DynamixelWorkbench@@QEAA_NEPEBDHPEAPEBD@Z
	?jointMode@DynamixelWorkbench@@QEAA_NEHHPEAPEBD@Z
	?led@DynamixelWorkbench@@QEAA_NEHPEAPEBD@Z
	?ledOff@DynamixelWorkbench@@QEAA_NEPEAPEBD@Z
	?ledOn@DynamixelWorkbench@@QEAA_NEPEAPEBD@Z
	?max@?$numeric_limits@_J@std@@SA_JXZ
	?max_size@?$_Default_allocator_traits@V?$allocator@E@std@@@std@@SA_KAEBV?$allocator@E@2@@Z
	?max_size@?$vector@EV?$allocator@E@std@@@std@@QEBA_KXZ
	?now@steady_clock@chrono@std@@SA?AV?$time_point@Usteady_clock@chrono@std@@V?$duration@_JU?$ratio@$00$0DLJKMKAA@@std@@@23@@23@XZ
	?now@system_clock@chrono@std@@SA?AV?$time_point@Usystem_clock@chrono@std@@V?$duration@_JU?$ratio@$00$0JIJGIA@@std@@@23@@23@XZ
	?ping@DynamixelDriver@@QEAA_NEPEAGPEAPEBD@Z
	?ping@DynamixelDriver@@QEAA_NEPEAPEBD@Z
	?readRegister@DynamixelDriver@@QEAA_NEGGPEAIPEAPEBD@Z
	?readRegister@DynamixelDriver@@QEAA_NEPEBDPEAHPEAPEBD@Z
	?reboot@DynamixelDriver@@QEAA_NEPEAPEBD@Z
	?reset@DynamixelDriver@@QEAA_NEPEAPEBD@Z
	?scan@DynamixelDriver@@QEAA_NPEAE0EEPEAPEBD@Z
	?scan@DynamixelDriver@@QEAA_NPEAE0EPEAPEBD@Z
	?setBaudrate@DynamixelDriver@@QEAA_NIPEAPEBD@Z
	?setControlTable@DynamixelTool@@AEAA_NGPEAPEBD@Z
	?setControlTable@DynamixelTool@@AEAA_NPEBDPEAPEBD@Z
	?setCurrentBasedPositionControlMode@DynamixelWorkbench@@QEAA_NEPEAPEBD@Z
	?setCurrentControlMode@DynamixelWorkbench@@QEAA_NEPEAPEBD@Z
	?setExtendedPositionControlMode@DynamixelWorkbench@@QEAA_NEPEAPEBD@Z
	?setModelName@DynamixelTool@@AEAA_NGPEAPEBD@Z
	?setModelNumber@DynamixelTool@@AEAA_NPEBDPEAPEBD@Z
	?setMultiTurnControlMode@DynamixelWorkbench@@QEAA_NEPEAPEBD@Z
	?setNormalDirection@DynamixelWorkbench@@QEAA_NEPEAPEBD@Z
	?setOperatingMode@DynamixelWorkbench@@QEAA_NEEPEAPEBD@Z
	?setPWMControlMode@DynamixelWorkbench@@QEAA_NEPEAPEBD@Z
	?setPacketHandler@DynamixelDriver@@QEAA_NMPEAPEBD@Z
	?setPortHandler@DynamixelDriver@@QEAA_NPEBDPEAPEBD@Z
	?setPositionControlMode@DynamixelWorkbench@@QEAA_NEPEAPEBD@Z
	?setReverseDirection@DynamixelWorkbench@@QEAA_NEPEAPEBD@Z
	?setSecondaryID@DynamixelWorkbench@@QEAA_NEEPEAPEBD@Z
	?setTimeBasedProfile@DynamixelWorkbench@@QEAA_NEPEAPEBD@Z
	?setTool@DynamixelDriver@@AEAA_NGEPEAPEBD@Z
	?setTorqueControlMode@DynamixelWorkbench@@QEAA_NEPEAPEBD@Z
	?setVelocityBasedProfile@DynamixelWorkbench@@QEAA_NEPEAPEBD@Z
	?setVelocityControlMode@DynamixelWorkbench@@QEAA_NEPEAPEBD@Z
	?syncRead@DynamixelDriver@@QEAA_NEPEAEEPEAPEBD@Z
	?syncRead@DynamixelDriver@@QEAA_NEPEAPEBD@Z
	?syncWrite@DynamixelDriver@@QEAA_NEPEAEEPEAHEPEAPEBD@Z
	?syncWrite@DynamixelDriver@@QEAA_NEPEAHPEAPEBD@Z
	?time_since_epoch@?$time_point@Usteady_clock@chrono@std@@V?$duration@_JU?$ratio@$00$0DLJKMKAA@@std@@@23@@chrono@std@@QEBA?AV?$duration@_JU?$ratio@$00$0DLJKMKAA@@std@@@23@XZ
	?time_since_epoch@?$time_point@Usystem_clock@chrono@std@@V?$duration@_JU?$ratio@$00$0JIJGIA@@std@@@23@@chrono@std@@QEBA?AV?$duration@_JU?$ratio@$00$0JIJGIA@@std@@@23@XZ
	?torque@DynamixelWorkbench@@QEAA_NEHPEAPEBD@Z
	?torqueOff@DynamixelWorkbench@@QEAA_NEPEAPEBD@Z
	?torqueOn@DynamixelWorkbench@@QEAA_NEPEAPEBD@Z
	?what@exception@std@@UEBAPEBDXZ
	?wheelMode@DynamixelWorkbench@@QEAA_NEHPEAPEBD@Z
	?writeOnlyRegister@DynamixelDriver@@QEAA_NEGGPEAEPEAPEBD@Z
	?writeOnlyRegister@DynamixelDriver@@QEAA_NEPEBDHPEAPEBD@Z
	?writeRegister@DynamixelDriver@@QEAA_NEGGPEAEPEAPEBD@Z
	?writeRegister@DynamixelDriver@@QEAA_NEPEBDHPEAPEBD@Z
