EXPORTS 
	??_R0?AVPacketHandler@dynamixel@@@8 	 DATA
	??_R0?AVPortHandler@dynamixel@@@8 	 DATA
	??_R0?AVPortHandlerWindows@dynamixel@@@8 	 DATA
	??_R0?AVProtocol1PacketHandler@dynamixel@@@8 	 DATA
	??_R0?AVProtocol2PacketHandler@dynamixel@@@8 	 DATA
	??_R0?AVbad_alloc@std@@@8 	 DATA
	??_R0?AVbad_array_new_length@std@@@8 	 DATA
	??_R0?AVexception@std@@@8 	 DATA
	?_OptionsStorage@?1??__local_stdio_printf_options@@9@4_KA 	 DATA
	?unique_instance_@Protocol1PacketHandler@dynamixel@@0PEAV12@EA 	 DATA
	?unique_instance_@Protocol2PacketHandler@dynamixel@@0PEAV12@EA 	 DATA
	??$?0$$V@?$_Compressed_pair@V?$allocator@E@std@@V?$_Vector_val@U?$_Simple_types@E@std@@@2@$00@std@@QEAA@U_Zero_then_variadic_args_t@1@@Z
	??$?0$$V@?$_Compressed_pair@V?$allocator@U?$_Tree_node@U?$pair@$$CBEG@std@@PEAX@std@@@std@@V?$_Tree_val@U?$_Tree_simple_types@U?$pair@$$CBEG@std@@@std@@@2@$00@std@@QEAA@U_Zero_then_variadic_args_t@1@@Z
	??$?0$$V@?$_Compressed_pair@V?$allocator@U?$_Tree_node@U?$pair@$$CBEPEAE@std@@PEAX@std@@@std@@V?$_Tree_val@U?$_Tree_simple_types@U?$pair@$$CBEPEAE@std@@@std@@@2@$00@std@@QEAA@U_Zero_then_variadic_args_t@1@@Z
	??$?0AEAPEAU?$_Tree_node@U?$pair@$$CBEG@std@@PEAX@std@@AEAPEAU01@$0A@@?$pair@PEAU?$_Tree_node@U?$pair@$$CBEG@std@@PEAX@std@@PEAU12@@std@@QEAA@AEAPEAU?$_Tree_node@U?$pair@$$CBEG@std@@PEAX@1@0@Z
	??$?0AEAPEAU?$_Tree_node@U?$pair@$$CBEPEAE@std@@PEAX@std@@AEAPEAU01@$0A@@?$pair@PEAU?$_Tree_node@U?$pair@$$CBEPEAE@std@@PEAX@std@@PEAU12@@std@@QEAA@AEAPEAU?$_Tree_node@U?$pair@$$CBEPEAE@std@@PEAX@1@0@Z
	??$?0AEBE$$Z$$V@?$pair@$$CBEG@std@@QEAA@Upiecewise_construct_t@1@V?$tuple@AEBE@1@V?$tuple@$$V@1@@Z
	??$?0AEBE$$Z$$V@?$pair@$$CBEPEAE@std@@QEAA@Upiecewise_construct_t@1@V?$tuple@AEBE@1@V?$tuple@$$V@1@@Z
	??$?0AEBE$0A@@?$tuple@AEBE@std@@QEAA@AEBE@Z
	??$?0AEBE@?$_Tuple_val@AEBE@std@@QEAA@AEBE@Z
	??$?0AEBQEAU?$_Tree_node@U?$pair@$$CBEG@std@@PEAX@std@@_N$0A@@?$pair@PEAU?$_Tree_node@U?$pair@$$CBEG@std@@PEAX@std@@_N@std@@QEAA@AEBQEAU?$_Tree_node@U?$pair@$$CBEG@std@@PEAX@1@$$QEA_N@Z
	??$?0AEBQEAU?$_Tree_node@U?$pair@$$CBEPEAE@std@@PEAX@std@@_N$0A@@?$pair@PEAU?$_Tree_node@U?$pair@$$CBEPEAE@std@@PEAX@std@@_N@std@@QEAA@AEBQEAU?$_Tree_node@U?$pair@$$CBEPEAE@std@@PEAX@1@$$QEA_N@Z
	??$?0AEBU?$less@E@std@@U_Zero_then_variadic_args_t@1@@?$_Compressed_pair@U?$less@E@std@@V?$_Compressed_pair@V?$allocator@U?$_Tree_node@U?$pair@$$CBEG@std@@PEAX@std@@@std@@V?$_Tree_val@U?$_Tree_simple_types@U?$pair@$$CBEG@std@@@std@@@2@$00@2@$00@std@@QEAA@U_One_then_variadic_args_t@1@AEBU?$less@E@1@$$QEAU_Zero_then_variadic_args_t@1@@Z
	??$?0AEBU?$less@E@std@@U_Zero_then_variadic_args_t@1@@?$_Compressed_pair@U?$less@E@std@@V?$_Compressed_pair@V?$allocator@U?$_Tree_node@U?$pair@$$CBEPEAE@std@@PEAX@std@@@std@@V?$_Tree_val@U?$_Tree_simple_types@U?$pair@$$CBEPEAE@std@@@std@@@2@$00@2@$00@std@@QEAA@U_One_then_variadic_args_t@1@AEBU?$less@E@1@$$QEAU_Zero_then_variadic_args_t@1@@Z
	??$?0AEBUpiecewise_construct_t@std@@V?$tuple@AEBE@1@V?$tuple@$$V@1@@?$_Tree_temp_node@V?$allocator@U?$_Tree_node@U?$pair@$$CBEG@std@@PEAX@std@@@std@@@std@@QEAA@AEAV?$allocator@U?$_Tree_node@U?$pair@$$CBEG@std@@PEAX@std@@@1@PEAU?$_Tree_node@U?$pair@$$CBEG@std@@PEAX@1@AEBUpiecewise_construct_t@1@$$QEAV?$tuple@AEBE@1@$$QEAV?$tuple@$$V@1@@Z
	??$?0AEBUpiecewise_construct_t@std@@V?$tuple@AEBE@1@V?$tuple@$$V@1@@?$_Tree_temp_node@V?$allocator@U?$_Tree_node@U?$pair@$$CBEPEAE@std@@PEAX@std@@@std@@@std@@QEAA@AEAV?$allocator@U?$_Tree_node@U?$pair@$$CBEPEAE@std@@PEAX@std@@@1@PEAU?$_Tree_node@U?$pair@$$CBEPEAE@std@@PEAX@1@AEBUpiecewise_construct_t@1@$$QEAV?$tuple@AEBE@1@$$QEAV?$tuple@$$V@1@@Z
	??$?0PEAU?$_Tree_node@U?$pair@$$CBEG@std@@PEAX@std@@_N$0A@@?$pair@PEAU?$_Tree_node@U?$pair@$$CBEG@std@@PEAX@std@@_N@std@@QEAA@$$QEAPEAU?$_Tree_node@U?$pair@$$CBEG@std@@PEAX@1@$$QEA_N@Z
	??$?0PEAU?$_Tree_node@U?$pair@$$CBEPEAE@std@@PEAX@std@@_N$0A@@?$pair@PEAU?$_Tree_node@U?$pair@$$CBEPEAE@std@@PEAX@std@@_N@std@@QEAA@$$QEAPEAU?$_Tree_node@U?$pair@$$CBEPEAE@std@@PEAX@1@$$QEA_N@Z
	??$?0U?$integral_constant@_N$0A@@std@@@_Unused_parameter@std@@QEAA@$$QEAU?$integral_constant@_N$0A@@1@@Z
	??$?0U?$less@E@std@@U_One_then_variadic_args_t@1@V?$allocator@U?$_Tree_node@U?$pair@$$CBEG@std@@PEAX@std@@@1@@?$_Compressed_pair@U?$less@E@std@@V?$_Compressed_pair@V?$allocator@U?$_Tree_node@U?$pair@$$CBEG@std@@PEAX@std@@@std@@V?$_Tree_val@U?$_Tree_simple_types@U?$pair@$$CBEG@std@@@std@@@2@$00@2@$00@std@@QEAA@U_One_then_variadic_args_t@1@$$QEAU?$less@E@1@$$QEAU21@$$QEAV?$allocator@U?$_Tree_node@U?$pair@$$CBEG@std@@PEAX@std@@@1@@Z
	??$?0U?$less@E@std@@U_One_then_variadic_args_t@1@V?$allocator@U?$_Tree_node@U?$pair@$$CBEPEAE@std@@PEAX@std@@@1@@?$_Compressed_pair@U?$less@E@std@@V?$_Compressed_pair@V?$allocator@U?$_Tree_node@U?$pair@$$CBEPEAE@std@@PEAX@std@@@std@@V?$_Tree_val@U?$_Tree_simple_types@U?$pair@$$CBEPEAE@std@@@std@@@2@$00@2@$00@std@@QEAA@U_One_then_variadic_args_t@1@$$QEAU?$less@E@1@$$QEAU21@$$QEAV?$allocator@U?$_Tree_node@U?$pair@$$CBEPEAE@std@@PEAX@std@@@1@@Z
	??$?0U_Exact_args_t@std@@$0A@@?$tuple@$$V@std@@QEAA@U_Exact_args_t@1@@Z
	??$?0U_Exact_args_t@std@@AEBE$$V$0A@@?$tuple@AEBE@std@@QEAA@U_Exact_args_t@1@AEBE@Z
	??$?0V?$allocator@E@std@@$$V@?$_Compressed_pair@V?$allocator@E@std@@V?$_Vector_val@U?$_Simple_types@E@std@@@2@$00@std@@QEAA@U_One_then_variadic_args_t@1@$$QEAV?$allocator@E@1@@Z
	??$?0V?$allocator@U?$_Tree_node@U?$pair@$$CBEG@std@@PEAX@std@@@std@@$$V@?$_Compressed_pair@V?$allocator@U?$_Tree_node@U?$pair@$$CBEG@std@@PEAX@std@@@std@@V?$_Tree_val@U?$_Tree_simple_types@U?$pair@$$CBEG@std@@@std@@@2@$00@std@@QEAA@U_One_then_variadic_args_t@1@$$QEAV?$allocator@U?$_Tree_node@U?$pair@$$CBEG@std@@PEAX@std@@@1@@Z
	??$?0V?$allocator@U?$_Tree_node@U?$pair@$$CBEG@std@@PEAX@std@@@std@@@?$_Tree@V?$_Tmap_traits@EGU?$less@E@std@@V?$allocator@U?$pair@$$CBEG@std@@@2@$0A@@std@@@std@@QEAA@AEBV01@$$QEAV?$allocator@U?$_Tree_node@U?$pair@$$CBEG@std@@PEAX@std@@@1@@Z
	??$?0V?$allocator@U?$_Tree_node@U?$pair@$$CBEPEAE@std@@PEAX@std@@@std@@$$V@?$_Compressed_pair@V?$allocator@U?$_Tree_node@U?$pair@$$CBEPEAE@std@@PEAX@std@@@std@@V?$_Tree_val@U?$_Tree_simple_types@U?$pair@$$CBEPEAE@std@@@std@@@2@$00@std@@QEAA@U_One_then_variadic_args_t@1@$$QEAV?$allocator@U?$_Tree_node@U?$pair@$$CBEPEAE@std@@PEAX@std@@@1@@Z
	??$?0V?$allocator@U?$_Tree_node@U?$pair@$$CBEPEAE@std@@PEAX@std@@@std@@@?$_Tree@V?$_Tmap_traits@EPEAEU?$less@E@std@@V?$allocator@U?$pair@$$CBEPEAE@std@@@2@$0A@@std@@@std@@QEAA@AEBV01@$$QEAV?$allocator@U?$_Tree_node@U?$pair@$$CBEPEAE@std@@PEAX@std@@@1@@Z
	??$?0V?$tuple@AEBE@std@@V?$tuple@$$V@1@$0A@$$Z$S@?$pair@$$CBEG@std@@QEAA@AEAV?$tuple@AEBE@1@AEAV?$tuple@$$V@1@U?$integer_sequence@_K$0A@@1@U?$integer_sequence@_K$S@1@@Z
	??$?0V?$tuple@AEBE@std@@V?$tuple@$$V@1@$0A@$$Z$S@?$pair@$$CBEPEAE@std@@QEAA@AEAV?$tuple@AEBE@1@AEAV?$tuple@$$V@1@U?$integer_sequence@_K$0A@@1@U?$integer_sequence@_K$S@1@@Z
	??$_Adl_verify_range@PEAEPEAE@std@@YAXAEBQEAE0@Z
	??$_Adl_verify_range@V?$_Tree_unchecked_const_iterator@V?$_Tree_val@U?$_Tree_simple_types@U?$pair@$$CBEG@std@@@std@@@std@@U_Iterator_base0@2@@std@@V12@@std@@YAXAEBV?$_Tree_unchecked_const_iterator@V?$_Tree_val@U?$_Tree_simple_types@U?$pair@$$CBEG@std@@@std@@@std@@U_Iterator_base0@2@@0@0@Z
	??$_Adl_verify_range@V?$_Tree_unchecked_const_iterator@V?$_Tree_val@U?$_Tree_simple_types@U?$pair@$$CBEPEAE@std@@@std@@@std@@U_Iterator_base0@2@@std@@V12@@std@@YAXAEBV?$_Tree_unchecked_const_iterator@V?$_Tree_val@U?$_Tree_simple_types@U?$pair@$$CBEPEAE@std@@@std@@@std@@U_Iterator_base0@2@@0@0@Z
	??$_Adl_verify_range@V?$_Vector_iterator@V?$_Vector_val@U?$_Simple_types@E@std@@@std@@@std@@V12@@std@@YAXAEBV?$_Vector_iterator@V?$_Vector_val@U?$_Simple_types@E@std@@@std@@@0@0@Z
	??$_Allocate@$0BA@U_Default_allocate_traits@std@@$0A@@std@@YAPEAX_K@Z
	??$_Allocate_manually_vector_aligned@U_Default_allocate_traits@std@@@std@@YAPEAX_K@Z
	??$_Assign_range@PEAE@?$vector@EV?$allocator@E@std@@@std@@AEAAXPEAE0Uforward_iterator_tag@1@@Z
	??$_Buyheadnode@V?$allocator@U?$_Tree_node@U?$pair@$$CBEG@std@@PEAX@std@@@std@@@?$_Tree_node@U?$pair@$$CBEG@std@@PEAX@std@@SAPEAU01@AEAV?$allocator@U?$_Tree_node@U?$pair@$$CBEG@std@@PEAX@std@@@1@@Z
	??$_Buyheadnode@V?$allocator@U?$_Tree_node@U?$pair@$$CBEPEAE@std@@PEAX@std@@@std@@@?$_Tree_node@U?$pair@$$CBEPEAE@std@@PEAX@std@@SAPEAU01@AEAV?$allocator@U?$_Tree_node@U?$pair@$$CBEPEAE@std@@PEAX@std@@@1@@Z
	??$_Buynode@AEAU?$pair@$$CBEG@std@@@?$_Tree@V?$_Tmap_traits@EGU?$less@E@std@@V?$allocator@U?$pair@$$CBEG@std@@@2@$0A@@std@@@std@@IEAAPEAU?$_Tree_node@U?$pair@$$CBEG@std@@PEAX@1@AEAU?$pair@$$CBEG@1@@Z
	??$_Buynode@AEAU?$pair@$$CBEPEAE@std@@@?$_Tree@V?$_Tmap_traits@EPEAEU?$less@E@std@@V?$allocator@U?$pair@$$CBEPEAE@std@@@2@$0A@@std@@@std@@IEAAPEAU?$_Tree_node@U?$pair@$$CBEPEAE@std@@PEAX@1@AEAU?$pair@$$CBEPEAE@1@@Z
	??$_Buynode@V?$allocator@U?$_Tree_node@U?$pair@$$CBEG@std@@PEAX@std@@@std@@AEAU?$pair@$$CBEG@2@@?$_Tree_node@U?$pair@$$CBEG@std@@PEAX@std@@SAPEAU01@AEAV?$allocator@U?$_Tree_node@U?$pair@$$CBEG@std@@PEAX@std@@@1@PEAU01@AEAU?$pair@$$CBEG@1@@Z
	??$_Buynode@V?$allocator@U?$_Tree_node@U?$pair@$$CBEPEAE@std@@PEAX@std@@@std@@AEAU?$pair@$$CBEPEAE@2@@?$_Tree_node@U?$pair@$$CBEPEAE@std@@PEAX@std@@SAPEAU01@AEAV?$allocator@U?$_Tree_node@U?$pair@$$CBEPEAE@std@@PEAX@std@@@1@PEAU01@AEAU?$pair@$$CBEPEAE@1@@Z
	??$_Construct_in_place@PEAU?$_Tree_node@U?$pair@$$CBEG@std@@PEAX@std@@AEAPEAU12@@std@@YAXAEAPEAU?$_Tree_node@U?$pair@$$CBEG@std@@PEAX@0@0@Z
	??$_Construct_in_place@PEAU?$_Tree_node@U?$pair@$$CBEG@std@@PEAX@std@@AEBQEAU12@@std@@YAXAEAPEAU?$_Tree_node@U?$pair@$$CBEG@std@@PEAX@0@AEBQEAU10@@Z
	??$_Construct_in_place@PEAU?$_Tree_node@U?$pair@$$CBEPEAE@std@@PEAX@std@@AEAPEAU12@@std@@YAXAEAPEAU?$_Tree_node@U?$pair@$$CBEPEAE@std@@PEAX@0@0@Z
	??$_Construct_in_place@PEAU?$_Tree_node@U?$pair@$$CBEPEAE@std@@PEAX@std@@AEBQEAU12@@std@@YAXAEAPEAU?$_Tree_node@U?$pair@$$CBEPEAE@std@@PEAX@0@AEBQEAU10@@Z
	??$_Convert_size@_K@std@@YA_K_K@Z
	??$_Copy@U_Copy_tag@?$_Tree@V?$_Tmap_traits@EGU?$less@E@std@@V?$allocator@U?$pair@$$CBEG@std@@@2@$0A@@std@@@std@@@?$_Tree@V?$_Tmap_traits@EGU?$less@E@std@@V?$allocator@U?$pair@$$CBEG@std@@@2@$0A@@std@@@std@@IEAAXAEBV01@U_Copy_tag@01@@Z
	??$_Copy@U_Copy_tag@?$_Tree@V?$_Tmap_traits@EPEAEU?$less@E@std@@V?$allocator@U?$pair@$$CBEPEAE@std@@@2@$0A@@std@@@std@@@?$_Tree@V?$_Tmap_traits@EPEAEU?$less@E@std@@V?$allocator@U?$pair@$$CBEPEAE@std@@@2@$0A@@std@@@std@@IEAAXAEBV01@U_Copy_tag@01@@Z
	??$_Copy_memmove@PEAEPEAE@std@@YAPEAEPEAE00@Z
	??$_Copy_nodes@U_Copy_tag@?$_Tree@V?$_Tmap_traits@EGU?$less@E@std@@V?$allocator@U?$pair@$$CBEG@std@@@2@$0A@@std@@@std@@@?$_Tree@V?$_Tmap_traits@EGU?$less@E@std@@V?$allocator@U?$pair@$$CBEG@std@@@2@$0A@@std@@@std@@IEAAPEAU?$_Tree_node@U?$pair@$$CBEG@std@@PEAX@1@PEAU21@0U_Copy_tag@01@@Z
	??$_Copy_nodes@U_Copy_tag@?$_Tree@V?$_Tmap_traits@EPEAEU?$less@E@std@@V?$allocator@U?$pair@$$CBEPEAE@std@@@2@$0A@@std@@@std@@@?$_Tree@V?$_Tmap_traits@EPEAEU?$less@E@std@@V?$allocator@U?$pair@$$CBEPEAE@std@@@2@$0A@@std@@@std@@IEAAPEAU?$_Tree_node@U?$pair@$$CBEPEAE@std@@PEAX@1@PEAU21@0U_Copy_tag@01@@Z
	??$_Copy_or_move@U?$pair@$$CBEG@std@@U?$integral_constant@_N$0A@@2@@?$_Tree@V?$_Tmap_traits@EGU?$less@E@std@@V?$allocator@U?$pair@$$CBEG@std@@@2@$0A@@std@@@std@@IEAAPEAU?$_Tree_node@U?$pair@$$CBEG@std@@PEAX@1@AEAU?$pair@$$CBEG@1@U_Copy_tag@01@U?$integral_constant@_N$0A@@1@@Z
	??$_Copy_or_move@U?$pair@$$CBEPEAE@std@@U?$integral_constant@_N$0A@@2@@?$_Tree@V?$_Tmap_traits@EPEAEU?$less@E@std@@V?$allocator@U?$pair@$$CBEPEAE@std@@@2@$0A@@std@@@std@@IEAAPEAU?$_Tree_node@U?$pair@$$CBEPEAE@std@@PEAX@1@AEAU?$pair@$$CBEPEAE@1@U_Copy_tag@01@U?$integral_constant@_N$0A@@1@@Z
	??$_Copy_unchecked@PEAEPEAE@std@@YAPEAEPEAE00@Z
	??$_Deallocate@$0BA@$0A@@std@@YAXPEAX_K@Z
	??$_Destroy_in_place@PEAU?$_Tree_node@U?$pair@$$CBEG@std@@PEAX@std@@@std@@YAXAEAPEAU?$_Tree_node@U?$pair@$$CBEG@std@@PEAX@0@@Z
	??$_Destroy_in_place@PEAU?$_Tree_node@U?$pair@$$CBEPEAE@std@@PEAX@std@@@std@@YAXAEAPEAU?$_Tree_node@U?$pair@$$CBEPEAE@std@@PEAX@0@@Z
	??$_Destroy_range@V?$allocator@E@std@@@std@@YAXPEAEQEAEAEAV?$allocator@E@0@@Z
	??$_Emplace_back@AEAE@?$_Uninitialized_backout_al@V?$allocator@E@std@@@std@@QEAAXAEAE@Z
	??$_Emplace_back@E@?$_Uninitialized_backout_al@V?$allocator@E@std@@@std@@QEAAX$$QEAE@Z
	??$_Emplace_back_with_unused_capacity@AEBE@?$vector@EV?$allocator@E@std@@@std@@AEAA?A_TAEBE@Z
	??$_Emplace_reallocate@AEBE@?$vector@EV?$allocator@E@std@@@std@@QEAAPEAEQEAEAEBE@Z
	??$_Eqrange@E@?$_Tree@V?$_Tmap_traits@EGU?$less@E@std@@V?$allocator@U?$pair@$$CBEG@std@@@2@$0A@@std@@@std@@IEBA?AU?$pair@PEAU?$_Tree_node@U?$pair@$$CBEG@std@@PEAX@std@@PEAU12@@1@AEBE@Z
	??$_Eqrange@E@?$_Tree@V?$_Tmap_traits@EPEAEU?$less@E@std@@V?$allocator@U?$pair@$$CBEPEAE@std@@@2@$0A@@std@@@std@@IEBA?AU?$pair@PEAU?$_Tree_node@U?$pair@$$CBEPEAE@std@@PEAX@std@@PEAU12@@1@AEBE@Z
	??$_Erase_head@V?$allocator@U?$_Tree_node@U?$pair@$$CBEG@std@@PEAX@std@@@std@@@?$_Tree_val@U?$_Tree_simple_types@U?$pair@$$CBEG@std@@@std@@@std@@QEAAXAEAV?$allocator@U?$_Tree_node@U?$pair@$$CBEG@std@@PEAX@std@@@1@@Z
	??$_Erase_head@V?$allocator@U?$_Tree_node@U?$pair@$$CBEPEAE@std@@PEAX@std@@@std@@@?$_Tree_val@U?$_Tree_simple_types@U?$pair@$$CBEPEAE@std@@@std@@@std@@QEAAXAEAV?$allocator@U?$_Tree_node@U?$pair@$$CBEPEAE@std@@PEAX@std@@@1@@Z
	??$_Erase_tree@V?$allocator@U?$_Tree_node@U?$pair@$$CBEG@std@@PEAX@std@@@std@@@?$_Tree_val@U?$_Tree_simple_types@U?$pair@$$CBEG@std@@@std@@@std@@QEAAXAEAV?$allocator@U?$_Tree_node@U?$pair@$$CBEG@std@@PEAX@std@@@1@PEAU?$_Tree_node@U?$pair@$$CBEG@std@@PEAX@1@@Z
	??$_Erase_tree@V?$allocator@U?$_Tree_node@U?$pair@$$CBEPEAE@std@@PEAX@std@@@std@@@?$_Tree_val@U?$_Tree_simple_types@U?$pair@$$CBEPEAE@std@@@std@@@std@@QEAAXAEAV?$allocator@U?$_Tree_node@U?$pair@$$CBEPEAE@std@@PEAX@std@@@1@PEAU?$_Tree_node@U?$pair@$$CBEPEAE@std@@PEAX@1@@Z
	??$_Erase_tree_and_orphan@V?$allocator@U?$_Tree_node@U?$pair@$$CBEG@std@@PEAX@std@@@std@@@?$_Tree_val@U?$_Tree_simple_types@U?$pair@$$CBEG@std@@@std@@@std@@QEAAXAEAV?$allocator@U?$_Tree_node@U?$pair@$$CBEG@std@@PEAX@std@@@1@PEAU?$_Tree_node@U?$pair@$$CBEG@std@@PEAX@1@@Z
	??$_Erase_tree_and_orphan@V?$allocator@U?$_Tree_node@U?$pair@$$CBEPEAE@std@@PEAX@std@@@std@@@?$_Tree_val@U?$_Tree_simple_types@U?$pair@$$CBEPEAE@std@@@std@@@std@@QEAAXAEAV?$allocator@U?$_Tree_node@U?$pair@$$CBEPEAE@std@@PEAX@std@@@1@PEAU?$_Tree_node@U?$pair@$$CBEPEAE@std@@PEAX@1@@Z
	??$_Find@E@?$_Tree@V?$_Tmap_traits@EPEAEU?$less@E@std@@V?$allocator@U?$pair@$$CBEPEAE@std@@@2@$0A@@std@@@std@@AEBAPEAU?$_Tree_node@U?$pair@$$CBEPEAE@std@@PEAX@1@AEBE@Z
	??$_Find_lower_bound@E@?$_Tree@V?$_Tmap_traits@EGU?$less@E@std@@V?$allocator@U?$pair@$$CBEG@std@@@2@$0A@@std@@@std@@IEBA?AU?$_Tree_find_result@PEAU?$_Tree_node@U?$pair@$$CBEG@std@@PEAX@std@@@1@AEBE@Z
	??$_Find_lower_bound@E@?$_Tree@V?$_Tmap_traits@EPEAEU?$less@E@std@@V?$allocator@U?$pair@$$CBEPEAE@std@@@2@$0A@@std@@@std@@IEBA?AU?$_Tree_find_result@PEAU?$_Tree_node@U?$pair@$$CBEPEAE@std@@PEAX@std@@@1@AEBE@Z
	??$_Find_unchecked1@PEAEE@std@@YAPEAEPEAEQEAEAEBEU?$integral_constant@_N$00@0@@Z
	??$_Find_unchecked@PEAEE@std@@YAPEAEQEAE0AEBE@Z
	??$_Freenode0@V?$allocator@U?$_Tree_node@U?$pair@$$CBEG@std@@PEAX@std@@@std@@@?$_Tree_node@U?$pair@$$CBEG@std@@PEAX@std@@SAXAEAV?$allocator@U?$_Tree_node@U?$pair@$$CBEG@std@@PEAX@std@@@1@PEAU01@@Z
	??$_Freenode0@V?$allocator@U?$_Tree_node@U?$pair@$$CBEPEAE@std@@PEAX@std@@@std@@@?$_Tree_node@U?$pair@$$CBEPEAE@std@@PEAX@std@@SAXAEAV?$allocator@U?$_Tree_node@U?$pair@$$CBEPEAE@std@@PEAX@std@@@1@PEAU01@@Z
	??$_Freenode@V?$allocator@U?$_Tree_node@U?$pair@$$CBEG@std@@PEAX@std@@@std@@@?$_Tree_node@U?$pair@$$CBEG@std@@PEAX@std@@SAXAEAV?$allocator@U?$_Tree_node@U?$pair@$$CBEG@std@@PEAX@std@@@1@PEAU01@@Z
	??$_Freenode@V?$allocator@U?$_Tree_node@U?$pair@$$CBEPEAE@std@@PEAX@std@@@std@@@?$_Tree_node@U?$pair@$$CBEPEAE@std@@PEAX@std@@SAXAEAV?$allocator@U?$_Tree_node@U?$pair@$$CBEPEAE@std@@PEAX@std@@@1@PEAU01@@Z
	??$_Get_size_of_n@$00@std@@YA_K_K@Z
	??$_Get_size_of_n@$0CA@@std@@YA_K_K@Z
	??$_Get_size_of_n@$0DA@@std@@YA_K_K@Z
	??$_Get_unwrapped@AEAPEAE@std@@YA?A_TAEAPEAE@Z
	??$_Get_unwrapped@AEAV?$_Tree_unchecked_const_iterator@V?$_Tree_val@U?$_Tree_simple_types@U?$pair@$$CBEG@std@@@std@@@std@@U_Iterator_base0@2@@std@@@std@@YA?A_TAEAV?$_Tree_unchecked_const_iterator@V?$_Tree_val@U?$_Tree_simple_types@U?$pair@$$CBEG@std@@@std@@@std@@U_Iterator_base0@2@@0@@Z
	??$_Get_unwrapped@AEAV?$_Tree_unchecked_const_iterator@V?$_Tree_val@U?$_Tree_simple_types@U?$pair@$$CBEPEAE@std@@@std@@@std@@U_Iterator_base0@2@@std@@@std@@YA?A_TAEAV?$_Tree_unchecked_const_iterator@V?$_Tree_val@U?$_Tree_simple_types@U?$pair@$$CBEPEAE@std@@@std@@@std@@U_Iterator_base0@2@@0@@Z
	??$_Get_unwrapped@AEAV?$_Vector_iterator@V?$_Vector_val@U?$_Simple_types@E@std@@@std@@@std@@@std@@YA?A_TAEAV?$_Vector_iterator@V?$_Vector_val@U?$_Simple_types@E@std@@@std@@@0@@Z
	??$_Get_unwrapped@AEBQEAE@std@@YA?A_TAEBQEAE@Z
	??$_Get_unwrapped@AEBV?$_Vector_iterator@V?$_Vector_val@U?$_Simple_types@E@std@@@std@@@std@@@std@@YA?A_TAEBV?$_Vector_iterator@V?$_Vector_val@U?$_Simple_types@E@std@@@std@@@0@@Z
	??$_Kfn@$$CBEG@?$_Tmap_traits@EGU?$less@E@std@@V?$allocator@U?$pair@$$CBEG@std@@@2@$0A@@std@@SAAEBEAEBU?$pair@$$CBEG@1@@Z
	??$_Kfn@$$CBEPEAE@?$_Tmap_traits@EPEAEU?$less@E@std@@V?$allocator@U?$pair@$$CBEPEAE@std@@@2@$0A@@std@@SAAEBEAEBU?$pair@$$CBEPEAE@1@@Z
	??$_Lower_bound_duplicate@E@?$_Tree@V?$_Tmap_traits@EGU?$less@E@std@@V?$allocator@U?$pair@$$CBEG@std@@@2@$0A@@std@@@std@@IEBA_NQEAU?$_Tree_node@U?$pair@$$CBEG@std@@PEAX@1@AEBE@Z
	??$_Lower_bound_duplicate@E@?$_Tree@V?$_Tmap_traits@EPEAEU?$less@E@std@@V?$allocator@U?$pair@$$CBEPEAE@std@@@2@$0A@@std@@@std@@IEBA_NQEAU?$_Tree_node@U?$pair@$$CBEPEAE@std@@PEAX@1@AEBE@Z
	??$_Move_unchecked@PEAEPEAE@std@@YAPEAEPEAE00@Z
	??$_Pocca@V?$allocator@E@std@@@std@@YAXAEAV?$allocator@E@0@AEBV10@@Z
	??$_Pocca@V?$allocator@U?$_Tree_node@U?$pair@$$CBEG@std@@PEAX@std@@@std@@@std@@YAXAEAV?$allocator@U?$_Tree_node@U?$pair@$$CBEG@std@@PEAX@std@@@0@AEBV10@@Z
	??$_Pocca@V?$allocator@U?$_Tree_node@U?$pair@$$CBEPEAE@std@@PEAX@std@@@std@@@std@@YAXAEAV?$allocator@U?$_Tree_node@U?$pair@$$CBEPEAE@std@@PEAX@std@@@0@AEBV10@@Z
	??$_Refancy@PEAE$0A@@std@@YAPEAEPEAE@Z
	??$_Seek_wrapped@V?$_Vector_iterator@V?$_Vector_val@U?$_Simple_types@E@std@@@std@@@std@@PEAE@std@@YAXAEAV?$_Vector_iterator@V?$_Vector_val@U?$_Simple_types@E@std@@@std@@@0@$$QEAPEAE@Z
	??$_To_address@PEAE@std@@YA?A_PAEBQEAE@Z
	??$_Try_emplace@AEBE$$V@?$map@EGU?$less@E@std@@V?$allocator@U?$pair@$$CBEG@std@@@2@@std@@AEAA?AU?$pair@PEAU?$_Tree_node@U?$pair@$$CBEG@std@@PEAX@std@@_N@1@AEBE@Z
	??$_Try_emplace@AEBE$$V@?$map@EPEAEU?$less@E@std@@V?$allocator@U?$pair@$$CBEPEAE@std@@@2@@std@@AEAA?AU?$pair@PEAU?$_Tree_node@U?$pair@$$CBEPEAE@std@@PEAX@std@@_N@1@AEBE@Z
	??$_Tuple_get@$0A@AEBE@std@@YA$$QEA_P$$QEAV?$tuple@AEBE@0@@Z
	??$_Ucopy@PEAE@?$vector@EV?$allocator@E@std@@@std@@AEAAPEAEPEAE00@Z
	??$_Unfancy@E@std@@YAPEAEPEAE@Z
	??$_Uninitialized_copy@PEAEV?$allocator@E@std@@@std@@YAPEAEQEAE0PEAEAEAV?$allocator@E@0@@Z
	??$_Uninitialized_move@PEAEV?$allocator@E@std@@@std@@YAPEAEQEAE0PEAEAEAV?$allocator@E@0@@Z
	??$_Voidify_iter@PEAE@std@@YAPEAXPEAE@Z
	??$_Voidify_iter@PEAPEAU?$_Tree_node@U?$pair@$$CBEG@std@@PEAX@std@@@std@@YAPEAXPEAPEAU?$_Tree_node@U?$pair@$$CBEG@std@@PEAX@0@@Z
	??$_Voidify_iter@PEAPEAU?$_Tree_node@U?$pair@$$CBEPEAE@std@@PEAX@std@@@std@@YAPEAXPEAPEAU?$_Tree_node@U?$pair@$$CBEPEAE@std@@PEAX@0@@Z
	??$_Voidify_iter@PEAU?$pair@$$CBEG@std@@@std@@YAPEAXPEAU?$pair@$$CBEG@0@@Z
	??$_Voidify_iter@PEAU?$pair@$$CBEPEAE@std@@@std@@YAPEAXPEAU?$pair@$$CBEPEAE@0@@Z
	??$_Within_limits@E@std@@YA_NAEBEU?$integral_constant@_N$0A@@0@1U_Unused_parameter@0@1@Z
	??$_Within_limits@PEAEE@std@@YA_NAEBQEAEAEBE@Z
	??$addressof@$$CBV?$_Tree@V?$_Tmap_traits@EGU?$less@E@std@@V?$allocator@U?$pair@$$CBEG@std@@@2@$0A@@std@@@std@@@std@@YAPEBV?$_Tree@V?$_Tmap_traits@EGU?$less@E@std@@V?$allocator@U?$pair@$$CBEG@std@@@2@$0A@@std@@@0@AEBV10@@Z
	??$addressof@$$CBV?$_Tree@V?$_Tmap_traits@EPEAEU?$less@E@std@@V?$allocator@U?$pair@$$CBEPEAE@std@@@2@$0A@@std@@@std@@@std@@YAPEBV?$_Tree@V?$_Tmap_traits@EPEAEU?$less@E@std@@V?$allocator@U?$pair@$$CBEPEAE@std@@@2@$0A@@std@@@0@AEBV10@@Z
	??$addressof@$$CBV?$_Tree_val@U?$_Tree_simple_types@U?$pair@$$CBEG@std@@@std@@@std@@@std@@YAPEBV?$_Tree_val@U?$_Tree_simple_types@U?$pair@$$CBEG@std@@@std@@@0@AEBV10@@Z
	??$addressof@$$CBV?$_Tree_val@U?$_Tree_simple_types@U?$pair@$$CBEPEAE@std@@@std@@@std@@@std@@YAPEBV?$_Tree_val@U?$_Tree_simple_types@U?$pair@$$CBEPEAE@std@@@std@@@0@AEBV10@@Z
	??$addressof@$$CBV?$vector@EV?$allocator@E@std@@@std@@@std@@YAPEBV?$vector@EV?$allocator@E@std@@@0@AEBV10@@Z
	??$addressof@PEAU?$_Tree_node@U?$pair@$$CBEG@std@@PEAX@std@@@std@@YAPEAPEAU?$_Tree_node@U?$pair@$$CBEG@std@@PEAX@0@AEAPEAU10@@Z
	??$addressof@PEAU?$_Tree_node@U?$pair@$$CBEPEAE@std@@PEAX@std@@@std@@YAPEAPEAU?$_Tree_node@U?$pair@$$CBEPEAE@std@@PEAX@0@AEAPEAU10@@Z
	??$addressof@U?$pair@$$CBEG@std@@@std@@YAPEAU?$pair@$$CBEG@0@AEAU10@@Z
	??$addressof@U?$pair@$$CBEPEAE@std@@@std@@YAPEAU?$pair@$$CBEPEAE@0@AEAU10@@Z
	??$addressof@V?$_Tree_val@U?$_Tree_simple_types@U?$pair@$$CBEG@std@@@std@@@std@@@std@@YAPEAV?$_Tree_val@U?$_Tree_simple_types@U?$pair@$$CBEG@std@@@std@@@0@AEAV10@@Z
	??$addressof@V?$_Tree_val@U?$_Tree_simple_types@U?$pair@$$CBEPEAE@std@@@std@@@std@@@std@@YAPEAV?$_Tree_val@U?$_Tree_simple_types@U?$pair@$$CBEPEAE@std@@@std@@@0@AEAV10@@Z
	??$addressof@V?$_Vector_val@U?$_Simple_types@E@std@@@std@@@std@@YAPEAV?$_Vector_val@U?$_Simple_types@E@std@@@0@AEAV10@@Z
	??$advance@PEAE_J@std@@YAXAEAPEAE_J@Z
	??$assign@PEAE$0A@@?$vector@EV?$allocator@E@std@@@std@@QEAAXPEAE0@Z
	??$construct@EAEAE@?$_Default_allocator_traits@V?$allocator@E@std@@@std@@SAXAEAV?$allocator@E@1@QEAEAEAE@Z
	??$construct@EAEBE@?$_Default_allocator_traits@V?$allocator@E@std@@@std@@SAXAEAV?$allocator@E@1@QEAEAEBE@Z
	??$construct@EE@?$_Default_allocator_traits@V?$allocator@E@std@@@std@@SAXAEAV?$allocator@E@1@QEAE$$QEAE@Z
	??$construct@U?$pair@$$CBEG@std@@AEAU12@@?$_Default_allocator_traits@V?$allocator@U?$_Tree_node@U?$pair@$$CBEG@std@@PEAX@std@@@std@@@std@@SAXAEAV?$allocator@U?$_Tree_node@U?$pair@$$CBEG@std@@PEAX@std@@@1@QEAU?$pair@$$CBEG@1@AEAU31@@Z
	??$construct@U?$pair@$$CBEG@std@@AEBUpiecewise_construct_t@2@V?$tuple@AEBE@2@V?$tuple@$$V@2@@?$_Default_allocator_traits@V?$allocator@U?$_Tree_node@U?$pair@$$CBEG@std@@PEAX@std@@@std@@@std@@SAXAEAV?$allocator@U?$_Tree_node@U?$pair@$$CBEG@std@@PEAX@std@@@1@QEAU?$pair@$$CBEG@1@AEBUpiecewise_construct_t@1@$$QEAV?$tuple@AEBE@1@$$QEAV?$tuple@$$V@1@@Z
	??$construct@U?$pair@$$CBEPEAE@std@@AEAU12@@?$_Default_allocator_traits@V?$allocator@U?$_Tree_node@U?$pair@$$CBEPEAE@std@@PEAX@std@@@std@@@std@@SAXAEAV?$allocator@U?$_Tree_node@U?$pair@$$CBEPEAE@std@@PEAX@std@@@1@QEAU?$pair@$$CBEPEAE@1@AEAU31@@Z
	??$construct@U?$pair@$$CBEPEAE@std@@AEBUpiecewise_construct_t@2@V?$tuple@AEBE@2@V?$tuple@$$V@2@@?$_Default_allocator_traits@V?$allocator@U?$_Tree_node@U?$pair@$$CBEPEAE@std@@PEAX@std@@@std@@@std@@SAXAEAV?$allocator@U?$_Tree_node@U?$pair@$$CBEPEAE@std@@PEAX@std@@@1@QEAU?$pair@$$CBEPEAE@1@AEBUpiecewise_construct_t@1@$$QEAV?$tuple@AEBE@1@$$QEAV?$tuple@$$V@1@@Z
	??$destroy@E@?$_Default_allocator_traits@V?$allocator@E@std@@@std@@SAXAEAV?$allocator@E@1@QEAE@Z
	??$destroy@U?$pair@$$CBEG@std@@@?$_Default_allocator_traits@V?$allocator@U?$_Tree_node@U?$pair@$$CBEG@std@@PEAX@std@@@std@@@std@@SAXAEAV?$allocator@U?$_Tree_node@U?$pair@$$CBEG@std@@PEAX@std@@@1@QEAU?$pair@$$CBEG@1@@Z
	??$destroy@U?$pair@$$CBEPEAE@std@@@?$_Default_allocator_traits@V?$allocator@U?$_Tree_node@U?$pair@$$CBEPEAE@std@@PEAX@std@@@std@@@std@@SAXAEAV?$allocator@U?$_Tree_node@U?$pair@$$CBEPEAE@std@@PEAX@std@@@1@QEAU?$pair@$$CBEPEAE@1@@Z
	??$distance@PEAE@std@@YA_JPEAE0@Z
	??$distance@V?$_Tree_unchecked_const_iterator@V?$_Tree_val@U?$_Tree_simple_types@U?$pair@$$CBEG@std@@@std@@@std@@U_Iterator_base0@2@@std@@@std@@YA_JV?$_Tree_unchecked_const_iterator@V?$_Tree_val@U?$_Tree_simple_types@U?$pair@$$CBEG@std@@@std@@@std@@U_Iterator_base0@2@@0@0@Z
	??$distance@V?$_Tree_unchecked_const_iterator@V?$_Tree_val@U?$_Tree_simple_types@U?$pair@$$CBEPEAE@std@@@std@@@std@@U_Iterator_base0@2@@std@@@std@@YA_JV?$_Tree_unchecked_const_iterator@V?$_Tree_val@U?$_Tree_simple_types@U?$pair@$$CBEPEAE@std@@@std@@@std@@U_Iterator_base0@2@@0@0@Z
	??$emplace_back@AEBE@?$vector@EV?$allocator@E@std@@@std@@QEAA?A_TAEBE@Z
	??$exchange@PEAU?$_Tree_node@U?$pair@$$CBEG@std@@PEAX@std@@$$T@std@@YAPEAU?$_Tree_node@U?$pair@$$CBEG@std@@PEAX@0@AEAPEAU10@$$QEA$$T@Z
	??$exchange@PEAU?$_Tree_node@U?$pair@$$CBEG@std@@PEAX@std@@AEAPEAU12@@std@@YAPEAU?$_Tree_node@U?$pair@$$CBEG@std@@PEAX@0@AEAPEAU10@0@Z
	??$exchange@PEAU?$_Tree_node@U?$pair@$$CBEPEAE@std@@PEAX@std@@$$T@std@@YAPEAU?$_Tree_node@U?$pair@$$CBEPEAE@std@@PEAX@0@AEAPEAU10@$$QEA$$T@Z
	??$exchange@PEAU?$_Tree_node@U?$pair@$$CBEPEAE@std@@PEAX@std@@AEAPEAU12@@std@@YAPEAU?$_Tree_node@U?$pair@$$CBEPEAE@std@@PEAX@0@AEAPEAU10@0@Z
	??$find@V?$_Vector_iterator@V?$_Vector_val@U?$_Simple_types@E@std@@@std@@@std@@E@std@@YA?AV?$_Vector_iterator@V?$_Vector_val@U?$_Simple_types@E@std@@@std@@@0@V10@V10@AEBE@Z
	??$forward@AEAE@std@@YAAEAEAEAE@Z
	??$forward@AEAPEAU?$_Tree_node@U?$pair@$$CBEG@std@@PEAX@std@@@std@@YAAEAPEAU?$_Tree_node@U?$pair@$$CBEG@std@@PEAX@0@AEAPEAU10@@Z
	??$forward@AEAPEAU?$_Tree_node@U?$pair@$$CBEPEAE@std@@PEAX@std@@@std@@YAAEAPEAU?$_Tree_node@U?$pair@$$CBEPEAE@std@@PEAX@0@AEAPEAU10@@Z
	??$forward@AEAU?$pair@$$CBEG@std@@@std@@YAAEAU?$pair@$$CBEG@0@AEAU10@@Z
	??$forward@AEAU?$pair@$$CBEPEAE@std@@@std@@YAAEAU?$pair@$$CBEPEAE@0@AEAU10@@Z
	??$forward@AEBE@std@@YAAEBEAEBE@Z
	??$forward@AEBQEAU?$_Tree_node@U?$pair@$$CBEG@std@@PEAX@std@@@std@@YAAEBQEAU?$_Tree_node@U?$pair@$$CBEG@std@@PEAX@0@AEBQEAU10@@Z
	??$forward@AEBQEAU?$_Tree_node@U?$pair@$$CBEPEAE@std@@PEAX@std@@@std@@YAAEBQEAU?$_Tree_node@U?$pair@$$CBEPEAE@std@@PEAX@0@AEBQEAU10@@Z
	??$forward@AEBU?$less@E@std@@@std@@YAAEBU?$less@E@0@AEBU10@@Z
	??$forward@AEBUpiecewise_construct_t@std@@@std@@YAAEBUpiecewise_construct_t@0@AEBU10@@Z
	??$forward@E@std@@YA$$QEAEAEAE@Z
	??$forward@PEAE@std@@YA$$QEAPEAEAEAPEAE@Z
	??$forward@PEAU?$_Tree_node@U?$pair@$$CBEG@std@@PEAX@std@@@std@@YA$$QEAPEAU?$_Tree_node@U?$pair@$$CBEG@std@@PEAX@0@AEAPEAU10@@Z
	??$forward@PEAU?$_Tree_node@U?$pair@$$CBEPEAE@std@@PEAX@std@@@std@@YA$$QEAPEAU?$_Tree_node@U?$pair@$$CBEPEAE@std@@PEAX@0@AEAPEAU10@@Z
	??$forward@U?$less@E@std@@@std@@YA$$QEAU?$less@E@0@AEAU10@@Z
	??$forward@U_One_then_variadic_args_t@std@@@std@@YA$$QEAU_One_then_variadic_args_t@0@AEAU10@@Z
	??$forward@U_Zero_then_variadic_args_t@std@@@std@@YA$$QEAU_Zero_then_variadic_args_t@0@AEAU10@@Z
	??$forward@V?$allocator@E@std@@@std@@YA$$QEAV?$allocator@E@0@AEAV10@@Z
	??$forward@V?$allocator@U?$_Tree_node@U?$pair@$$CBEG@std@@PEAX@std@@@std@@@std@@YA$$QEAV?$allocator@U?$_Tree_node@U?$pair@$$CBEG@std@@PEAX@std@@@0@AEAV10@@Z
	??$forward@V?$allocator@U?$_Tree_node@U?$pair@$$CBEPEAE@std@@PEAX@std@@@std@@@std@@YA$$QEAV?$allocator@U?$_Tree_node@U?$pair@$$CBEPEAE@std@@PEAX@std@@@0@AEAV10@@Z
	??$forward@V?$tuple@$$V@std@@@std@@YA$$QEAV?$tuple@$$V@0@AEAV10@@Z
	??$forward@V?$tuple@AEBE@std@@@std@@YA$$QEAV?$tuple@AEBE@0@AEAV10@@Z
	??$forward@_N@std@@YA$$QEA_NAEA_N@Z
	??$forward_as_tuple@$$V@std@@YA?AV?$tuple@$$V@0@XZ
	??$forward_as_tuple@AEBE@std@@YA?AV?$tuple@AEBE@0@AEBE@Z
	??$min@_K@std@@YAAEB_KAEB_K0@Z
	??$move@AEAD@std@@YA$$QEADAEAD@Z
	??$move@AEAE@std@@YA$$QEAEAEAE@Z
	??$move@AEAV?$tuple@AEBE@std@@@std@@YA$$QEAV?$tuple@AEBE@0@AEAV10@@Z
	??$next@PEAE@std@@YAPEAEPEAE_J@Z
	??$swap@D$0A@@std@@YAXAEAD0@Z
	??0?$_Alloc_construct_ptr@V?$allocator@U?$_Tree_node@U?$pair@$$CBEG@std@@PEAX@std@@@std@@@std@@QEAA@AEAV?$allocator@U?$_Tree_node@U?$pair@$$CBEG@std@@PEAX@std@@@1@@Z
	??0?$_Alloc_construct_ptr@V?$allocator@U?$_Tree_node@U?$pair@$$CBEPEAE@std@@PEAX@std@@@std@@@std@@QEAA@AEAV?$allocator@U?$_Tree_node@U?$pair@$$CBEPEAE@std@@PEAX@std@@@1@@Z
	??0?$_Tree@V?$_Tmap_traits@EGU?$less@E@std@@V?$allocator@U?$pair@$$CBEG@std@@@2@$0A@@std@@@std@@QEAA@AEBU?$less@E@1@@Z
	??0?$_Tree@V?$_Tmap_traits@EPEAEU?$less@E@std@@V?$allocator@U?$pair@$$CBEPEAE@std@@@2@$0A@@std@@@std@@QEAA@AEBU?$less@E@1@@Z
	??0?$_Tree_const_iterator@V?$_Tree_val@U?$_Tree_simple_types@U?$pair@$$CBEPEAE@std@@@std@@@std@@@std@@QEAA@PEAU?$_Tree_node@U?$pair@$$CBEPEAE@std@@PEAX@1@PEBV?$_Tree_val@U?$_Tree_simple_types@U?$pair@$$CBEPEAE@std@@@std@@@1@@Z
	??0?$_Tree_head_scoped_ptr@V?$allocator@U?$_Tree_node@U?$pair@$$CBEG@std@@PEAX@std@@@std@@V?$_Tree_val@U?$_Tree_simple_types@U?$pair@$$CBEG@std@@@std@@@2@@std@@QEAA@AEAV?$allocator@U?$_Tree_node@U?$pair@$$CBEG@std@@PEAX@std@@@1@AEAV?$_Tree_val@U?$_Tree_simple_types@U?$pair@$$CBEG@std@@@std@@@1@@Z
	??0?$_Tree_head_scoped_ptr@V?$allocator@U?$_Tree_node@U?$pair@$$CBEPEAE@std@@PEAX@std@@@std@@V?$_Tree_val@U?$_Tree_simple_types@U?$pair@$$CBEPEAE@std@@@std@@@2@@std@@QEAA@AEAV?$allocator@U?$_Tree_node@U?$pair@$$CBEPEAE@std@@PEAX@std@@@1@AEAV?$_Tree_val@U?$_Tree_simple_types@U?$pair@$$CBEPEAE@std@@@std@@@1@@Z
	??0?$_Tree_iterator@V?$_Tree_val@U?$_Tree_simple_types@U?$pair@$$CBEPEAE@std@@@std@@@std@@@std@@QEAA@PEAU?$_Tree_node@U?$pair@$$CBEPEAE@std@@PEAX@1@PEBV?$_Tree_val@U?$_Tree_simple_types@U?$pair@$$CBEPEAE@std@@@std@@@1@@Z
	??0?$_Tree_temp_node_alloc@V?$allocator@U?$_Tree_node@U?$pair@$$CBEG@std@@PEAX@std@@@std@@@std@@QEAA@AEAV?$allocator@U?$_Tree_node@U?$pair@$$CBEG@std@@PEAX@std@@@1@@Z
	??0?$_Tree_temp_node_alloc@V?$allocator@U?$_Tree_node@U?$pair@$$CBEPEAE@std@@PEAX@std@@@std@@@std@@QEAA@AEAV?$allocator@U?$_Tree_node@U?$pair@$$CBEPEAE@std@@PEAX@std@@@1@@Z
	??0?$_Tree_unchecked_const_iterator@V?$_Tree_val@U?$_Tree_simple_types@U?$pair@$$CBEG@std@@@std@@@std@@U_Iterator_base0@2@@std@@QEAA@PEAU?$_Tree_node@U?$pair@$$CBEG@std@@PEAX@1@PEBV?$_Tree_val@U?$_Tree_simple_types@U?$pair@$$CBEG@std@@@std@@@1@@Z
	??0?$_Tree_unchecked_const_iterator@V?$_Tree_val@U?$_Tree_simple_types@U?$pair@$$CBEPEAE@std@@@std@@@std@@U_Iterator_base0@2@@std@@QEAA@PEAU?$_Tree_node@U?$pair@$$CBEPEAE@std@@PEAX@1@PEBV?$_Tree_val@U?$_Tree_simple_types@U?$pair@$$CBEPEAE@std@@@std@@@1@@Z
	??0?$_Tree_unchecked_iterator@V?$_Tree_val@U?$_Tree_simple_types@U?$pair@$$CBEG@std@@@std@@@std@@@std@@QEAA@PEAU?$_Tree_node@U?$pair@$$CBEG@std@@PEAX@1@PEBV?$_Tree_val@U?$_Tree_simple_types@U?$pair@$$CBEG@std@@@std@@@1@@Z
	??0?$_Tree_unchecked_iterator@V?$_Tree_val@U?$_Tree_simple_types@U?$pair@$$CBEPEAE@std@@@std@@@std@@@std@@QEAA@PEAU?$_Tree_node@U?$pair@$$CBEPEAE@std@@PEAX@1@PEBV?$_Tree_val@U?$_Tree_simple_types@U?$pair@$$CBEPEAE@std@@@std@@@1@@Z
	??0?$_Tree_val@U?$_Tree_simple_types@U?$pair@$$CBEG@std@@@std@@@std@@QEAA@XZ
	??0?$_Tree_val@U?$_Tree_simple_types@U?$pair@$$CBEPEAE@std@@@std@@@std@@QEAA@XZ
	??0?$_Uninitialized_backout_al@V?$allocator@E@std@@@std@@QEAA@PEAEAEAV?$allocator@E@1@@Z
	??0?$_Vector_const_iterator@V?$_Vector_val@U?$_Simple_types@E@std@@@std@@@std@@QEAA@PEAEPEBU_Container_base0@1@@Z
	??0?$_Vector_iterator@V?$_Vector_val@U?$_Simple_types@E@std@@@std@@@std@@QEAA@PEAEPEBU_Container_base0@1@@Z
	??0?$_Vector_val@U?$_Simple_types@E@std@@@std@@QEAA@XZ
	??0?$allocator@E@std@@QEAA@XZ
	??0?$allocator@U?$_Tree_node@U?$pair@$$CBEG@std@@PEAX@std@@@std@@QEAA@XZ
	??0?$allocator@U?$_Tree_node@U?$pair@$$CBEPEAE@std@@PEAX@std@@@std@@QEAA@XZ
	??0?$map@EGU?$less@E@std@@V?$allocator@U?$pair@$$CBEG@std@@@2@@std@@QEAA@AEBV01@@Z
	??0?$map@EGU?$less@E@std@@V?$allocator@U?$pair@$$CBEG@std@@@2@@std@@QEAA@XZ
	??0?$map@EPEAEU?$less@E@std@@V?$allocator@U?$pair@$$CBEPEAE@std@@@2@@std@@QEAA@AEBV01@@Z
	??0?$map@EPEAEU?$less@E@std@@V?$allocator@U?$pair@$$CBEPEAE@std@@@2@@std@@QEAA@XZ
	??0?$tuple@$$V@std@@QEAA@AEBV01@@Z
	??0?$tuple@AEBE@std@@QEAA@$$QEAV01@@Z
	??0?$vector@EV?$allocator@E@std@@@std@@QEAA@AEBV01@@Z
	??0?$vector@EV?$allocator@E@std@@@std@@QEAA@XZ
	??0GroupBulkRead@dynamixel@@QEAA@AEBV01@@Z
	??0GroupBulkRead@dynamixel@@QEAA@PEAVPortHandler@1@PEAVPacketHandler@1@@Z
	??0GroupBulkWrite@dynamixel@@QEAA@AEBV01@@Z
	??0GroupBulkWrite@dynamixel@@QEAA@PEAVPortHandler@1@PEAVPacketHandler@1@@Z
	??0GroupSyncRead@dynamixel@@QEAA@AEBV01@@Z
	??0GroupSyncRead@dynamixel@@QEAA@PEAVPortHandler@1@PEAVPacketHandler@1@GG@Z
	??0GroupSyncWrite@dynamixel@@QEAA@AEBV01@@Z
	??0GroupSyncWrite@dynamixel@@QEAA@PEAVPortHandler@1@PEAVPacketHandler@1@GG@Z
	??0PacketHandler@dynamixel@@IEAA@XZ
	??0PacketHandler@dynamixel@@QEAA@AEBV01@@Z
	??0PortHandler@dynamixel@@QEAA@AEBV01@@Z
	??0PortHandler@dynamixel@@QEAA@XZ
	??0PortHandlerWindows@dynamixel@@QEAA@AEBV01@@Z
	??0PortHandlerWindows@dynamixel@@QEAA@PEBD@Z
	??0Protocol1PacketHandler@dynamixel@@AEAA@XZ
	??0Protocol1PacketHandler@dynamixel@@QEAA@AEBV01@@Z
	??0Protocol2PacketHandler@dynamixel@@AEAA@XZ
	??0Protocol2PacketHandler@dynamixel@@QEAA@AEBV01@@Z
	??0_Fake_proxy_ptr_impl@std@@QEAA@AEBU_Fake_allocator@1@AEBU_Container_base0@1@@Z
	??0bad_alloc@std@@AEAA@QEBD@Z
	??0bad_alloc@std@@QEAA@AEBV01@@Z
	??0bad_array_new_length@std@@QEAA@AEBV01@@Z
	??0bad_array_new_length@std@@QEAA@XZ
	??0exception@std@@QEAA@AEBV01@@Z
	??0exception@std@@QEAA@QEBDH@Z
	??1?$_Alloc_construct_ptr@V?$allocator@U?$_Tree_node@U?$pair@$$CBEG@std@@PEAX@std@@@std@@@std@@QEAA@XZ
	??1?$_Alloc_construct_ptr@V?$allocator@U?$_Tree_node@U?$pair@$$CBEPEAE@std@@PEAX@std@@@std@@@std@@QEAA@XZ
	??1?$_Tidy_guard@V?$vector@EV?$allocator@E@std@@@std@@@std@@QEAA@XZ
	??1?$_Tree@V?$_Tmap_traits@EGU?$less@E@std@@V?$allocator@U?$pair@$$CBEG@std@@@2@$0A@@std@@@std@@QEAA@XZ
	??1?$_Tree@V?$_Tmap_traits@EPEAEU?$less@E@std@@V?$allocator@U?$pair@$$CBEPEAE@std@@@2@$0A@@std@@@std@@QEAA@XZ
	??1?$_Tree_head_scoped_ptr@V?$allocator@U?$_Tree_node@U?$pair@$$CBEG@std@@PEAX@std@@@std@@V?$_Tree_val@U?$_Tree_simple_types@U?$pair@$$CBEG@std@@@std@@@2@@std@@QEAA@XZ
	??1?$_Tree_head_scoped_ptr@V?$allocator@U?$_Tree_node@U?$pair@$$CBEPEAE@std@@PEAX@std@@@std@@V?$_Tree_val@U?$_Tree_simple_types@U?$pair@$$CBEPEAE@std@@@std@@@2@@std@@QEAA@XZ
	??1?$_Tree_temp_node@V?$allocator@U?$_Tree_node@U?$pair@$$CBEG@std@@PEAX@std@@@std@@@std@@QEAA@XZ
	??1?$_Tree_temp_node@V?$allocator@U?$_Tree_node@U?$pair@$$CBEPEAE@std@@PEAX@std@@@std@@@std@@QEAA@XZ
	??1?$_Tree_temp_node_alloc@V?$allocator@U?$_Tree_node@U?$pair@$$CBEG@std@@PEAX@std@@@std@@@std@@QEAA@XZ
	??1?$_Tree_temp_node_alloc@V?$allocator@U?$_Tree_node@U?$pair@$$CBEPEAE@std@@PEAX@std@@@std@@@std@@QEAA@XZ
	??1?$_Uninitialized_backout_al@V?$allocator@E@std@@@std@@QEAA@XZ
	??1?$map@EGU?$less@E@std@@V?$allocator@U?$pair@$$CBEG@std@@@2@@std@@QEAA@XZ
	??1?$map@EPEAEU?$less@E@std@@V?$allocator@U?$pair@$$CBEPEAE@std@@@2@@std@@QEAA@XZ
	??1?$vector@EV?$allocator@E@std@@@std@@QEAA@XZ
	??1GroupBulkRead@dynamixel@@QEAA@XZ
	??1GroupBulkWrite@dynamixel@@QEAA@XZ
	??1GroupSyncRead@dynamixel@@QEAA@XZ
	??1GroupSyncWrite@dynamixel@@QEAA@XZ
	??1PacketHandler@dynamixel@@UEAA@XZ
	??1PortHandler@dynamixel@@UEAA@XZ
	??1PortHandlerWindows@dynamixel@@UEAA@XZ
	??1Protocol1PacketHandler@dynamixel@@UEAA@XZ
	??1Protocol2PacketHandler@dynamixel@@UEAA@XZ
	??1bad_alloc@std@@UEAA@XZ
	??1bad_array_new_length@std@@UEAA@XZ
	??1exception@std@@UEAA@XZ
	??2@YAPEAX_KPEAX@Z
	??4?$_Tree@V?$_Tmap_traits@EGU?$less@E@std@@V?$allocator@U?$pair@$$CBEG@std@@@2@$0A@@std@@@std@@QEAAAEAV01@AEBV01@@Z
	??4?$_Tree@V?$_Tmap_traits@EPEAEU?$less@E@std@@V?$allocator@U?$pair@$$CBEPEAE@std@@@2@$0A@@std@@@std@@QEAAAEAV01@AEBV01@@Z
	??4?$map@EGU?$less@E@std@@V?$allocator@U?$pair@$$CBEG@std@@@2@@std@@QEAAAEAV01@AEBV01@@Z
	??4?$map@EPEAEU?$less@E@std@@V?$allocator@U?$pair@$$CBEPEAE@std@@@2@@std@@QEAAAEAV01@AEBV01@@Z
	??4?$vector@EV?$allocator@E@std@@@std@@QEAAAEAV01@AEBV01@@Z
	??4GroupBulkRead@dynamixel@@QEAAAEAV01@AEBV01@@Z
	??4GroupBulkWrite@dynamixel@@QEAAAEAV01@AEBV01@@Z
	??4GroupSyncRead@dynamixel@@QEAAAEAV01@AEBV01@@Z
	??4GroupSyncWrite@dynamixel@@QEAAAEAV01@AEBV01@@Z
	??4PacketHandler@dynamixel@@QEAAAEAV01@AEBV01@@Z
	??4PortHandler@dynamixel@@QEAAAEAV01@AEBV01@@Z
	??4PortHandlerWindows@dynamixel@@QEAAAEAV01@AEBV01@@Z
	??4Protocol1PacketHandler@dynamixel@@QEAAAEAV01@AEBV01@@Z
	??4Protocol2PacketHandler@dynamixel@@QEAAAEAV01@AEBV01@@Z
	??8?$_Tree_const_iterator@V?$_Tree_val@U?$_Tree_simple_types@U?$pair@$$CBEPEAE@std@@@std@@@std@@@std@@QEBA_NAEBV01@@Z
	??8?$_Tree_unchecked_const_iterator@V?$_Tree_val@U?$_Tree_simple_types@U?$pair@$$CBEG@std@@@std@@@std@@U_Iterator_base0@2@@std@@QEBA_NAEBV01@@Z
	??8?$_Tree_unchecked_const_iterator@V?$_Tree_val@U?$_Tree_simple_types@U?$pair@$$CBEPEAE@std@@@std@@@std@@U_Iterator_base0@2@@std@@QEBA_NAEBV01@@Z
	??8?$_Vector_const_iterator@V?$_Vector_val@U?$_Simple_types@E@std@@@std@@@std@@QEBA_NAEBV01@@Z
	??9?$_Tree_unchecked_const_iterator@V?$_Tree_val@U?$_Tree_simple_types@U?$pair@$$CBEG@std@@@std@@@std@@U_Iterator_base0@2@@std@@QEBA_NAEBV01@@Z
	??9?$_Tree_unchecked_const_iterator@V?$_Tree_val@U?$_Tree_simple_types@U?$pair@$$CBEPEAE@std@@@std@@@std@@U_Iterator_base0@2@@std@@QEBA_NAEBV01@@Z
	??9?$_Vector_const_iterator@V?$_Vector_val@U?$_Simple_types@E@std@@@std@@@std@@QEBA_NAEBV01@@Z
	??A?$map@EGU?$less@E@std@@V?$allocator@U?$pair@$$CBEG@std@@@2@@std@@QEAAAEAGAEBE@Z
	??A?$map@EPEAEU?$less@E@std@@V?$allocator@U?$pair@$$CBEPEAE@std@@@2@@std@@QEAAAEAPEAEAEBE@Z
	??A?$vector@EV?$allocator@E@std@@@std@@QEAAAEAE_K@Z
	??E?$_Tree_unchecked_const_iterator@V?$_Tree_val@U?$_Tree_simple_types@U?$pair@$$CBEG@std@@@std@@@std@@U_Iterator_base0@2@@std@@QEAA?AV01@H@Z
	??E?$_Tree_unchecked_const_iterator@V?$_Tree_val@U?$_Tree_simple_types@U?$pair@$$CBEG@std@@@std@@@std@@U_Iterator_base0@2@@std@@QEAAAEAV01@XZ
	??E?$_Tree_unchecked_const_iterator@V?$_Tree_val@U?$_Tree_simple_types@U?$pair@$$CBEPEAE@std@@@std@@@std@@U_Iterator_base0@2@@std@@QEAA?AV01@H@Z
	??E?$_Tree_unchecked_const_iterator@V?$_Tree_val@U?$_Tree_simple_types@U?$pair@$$CBEPEAE@std@@@std@@@std@@U_Iterator_base0@2@@std@@QEAAAEAV01@XZ
	??R?$less@E@std@@QEBA_NAEBE0@Z
	?_Adjust_manually_vector_aligned@std@@YAXAEAPEAXAEA_K@Z
	?_Adopt@_Iterator_base0@std@@QEAAXPEBX@Z
	?_Alloc_proxy@_Container_base0@std@@QEAAXAEBU_Fake_allocator@2@@Z
	?_Alloc_sentinel_and_proxy@?$_Tree@V?$_Tmap_traits@EGU?$less@E@std@@V?$allocator@U?$pair@$$CBEG@std@@@2@$0A@@std@@@std@@IEAAXXZ
	?_Alloc_sentinel_and_proxy@?$_Tree@V?$_Tmap_traits@EPEAEU?$less@E@std@@V?$allocator@U?$pair@$$CBEPEAE@std@@@2@$0A@@std@@@std@@IEAAXXZ
	?_Allocate@?$_Alloc_construct_ptr@V?$allocator@U?$_Tree_node@U?$pair@$$CBEG@std@@PEAX@std@@@std@@@std@@QEAAXXZ
	?_Allocate@?$_Alloc_construct_ptr@V?$allocator@U?$_Tree_node@U?$pair@$$CBEPEAE@std@@PEAX@std@@@std@@@std@@QEAAXXZ
	?_Allocate@_Default_allocate_traits@std@@SAPEAX_K@Z
	?_Buy_raw@?$vector@EV?$allocator@E@std@@@std@@AEAAX_K@Z
	?_Calculate_growth@?$vector@EV?$allocator@E@std@@@std@@AEBA_K_K@Z
	?_Change_array@?$vector@EV?$allocator@E@std@@@std@@AEAAXQEAE_K1@Z
	?_Check_grow_by_1@?$_Tree@V?$_Tmap_traits@EGU?$less@E@std@@V?$allocator@U?$pair@$$CBEG@std@@@2@$0A@@std@@@std@@IEAAXXZ
	?_Check_grow_by_1@?$_Tree@V?$_Tmap_traits@EPEAEU?$less@E@std@@V?$allocator@U?$pair@$$CBEPEAE@std@@@2@$0A@@std@@@std@@IEAAXXZ
	?_Clear_and_reserve_geometric@?$vector@EV?$allocator@E@std@@@std@@AEAAX_K@Z
	?_Compat@?$_Vector_const_iterator@V?$_Vector_val@U?$_Simple_types@E@std@@@std@@@std@@QEBAXAEBV12@@Z
	?_Copy_assign@?$_Tree@V?$_Tmap_traits@EGU?$less@E@std@@V?$allocator@U?$pair@$$CBEG@std@@@2@$0A@@std@@@std@@AEAAXAEBV12@U?$integral_constant@_N$0A@@2@@Z
	?_Copy_assign@?$_Tree@V?$_Tmap_traits@EPEAEU?$less@E@std@@V?$allocator@U?$pair@$$CBEPEAE@std@@@2@$0A@@std@@@std@@AEAAXAEBV12@U?$integral_constant@_N$0A@@2@@Z
	?_Copy_assign@?$vector@EV?$allocator@E@std@@@std@@AEAAXAEBV12@U?$integral_constant@_N$0A@@2@@Z
	?_Destroy@?$vector@EV?$allocator@E@std@@@std@@AEAAXPEAE0@Z
	?_Erase_unchecked@?$_Tree@V?$_Tmap_traits@EGU?$less@E@std@@V?$allocator@U?$pair@$$CBEG@std@@@2@$0A@@std@@@std@@AEAAPEAU?$_Tree_node@U?$pair@$$CBEG@std@@PEAX@2@V?$_Tree_unchecked_const_iterator@V?$_Tree_val@U?$_Tree_simple_types@U?$pair@$$CBEG@std@@@std@@@std@@U_Iterator_base0@2@@2@0@Z
	?_Erase_unchecked@?$_Tree@V?$_Tmap_traits@EGU?$less@E@std@@V?$allocator@U?$pair@$$CBEG@std@@@2@$0A@@std@@@std@@AEAAPEAU?$_Tree_node@U?$pair@$$CBEG@std@@PEAX@2@V?$_Tree_unchecked_const_iterator@V?$_Tree_val@U?$_Tree_simple_types@U?$pair@$$CBEG@std@@@std@@@std@@U_Iterator_base0@2@@2@@Z
	?_Erase_unchecked@?$_Tree@V?$_Tmap_traits@EPEAEU?$less@E@std@@V?$allocator@U?$pair@$$CBEPEAE@std@@@2@$0A@@std@@@std@@AEAAPEAU?$_Tree_node@U?$pair@$$CBEPEAE@std@@PEAX@2@V?$_Tree_unchecked_const_iterator@V?$_Tree_val@U?$_Tree_simple_types@U?$pair@$$CBEPEAE@std@@@std@@@std@@U_Iterator_base0@2@@2@0@Z
	?_Erase_unchecked@?$_Tree@V?$_Tmap_traits@EPEAEU?$less@E@std@@V?$allocator@U?$pair@$$CBEPEAE@std@@@2@$0A@@std@@@std@@AEAAPEAU?$_Tree_node@U?$pair@$$CBEPEAE@std@@PEAX@2@V?$_Tree_unchecked_const_iterator@V?$_Tree_val@U?$_Tree_simple_types@U?$pair@$$CBEPEAE@std@@@std@@@std@@U_Iterator_base0@2@@2@@Z
	?_Extract@?$_Tree_val@U?$_Tree_simple_types@U?$pair@$$CBEG@std@@@std@@@std@@QEAAPEAU?$_Tree_node@U?$pair@$$CBEG@std@@PEAX@2@V?$_Tree_unchecked_const_iterator@V?$_Tree_val@U?$_Tree_simple_types@U?$pair@$$CBEG@std@@@std@@@std@@U_Iterator_base0@2@@2@@Z
	?_Extract@?$_Tree_val@U?$_Tree_simple_types@U?$pair@$$CBEPEAE@std@@@std@@@std@@QEAAPEAU?$_Tree_node@U?$pair@$$CBEPEAE@std@@PEAX@2@V?$_Tree_unchecked_const_iterator@V?$_Tree_val@U?$_Tree_simple_types@U?$pair@$$CBEPEAE@std@@@std@@@std@@U_Iterator_base0@2@@2@@Z
	?_Get_first@?$_Compressed_pair@U?$less@E@std@@V?$_Compressed_pair@V?$allocator@U?$_Tree_node@U?$pair@$$CBEG@std@@PEAX@std@@@std@@V?$_Tree_val@U?$_Tree_simple_types@U?$pair@$$CBEG@std@@@std@@@2@$00@2@$00@std@@QEAAAEAU?$less@E@2@XZ
	?_Get_first@?$_Compressed_pair@U?$less@E@std@@V?$_Compressed_pair@V?$allocator@U?$_Tree_node@U?$pair@$$CBEG@std@@PEAX@std@@@std@@V?$_Tree_val@U?$_Tree_simple_types@U?$pair@$$CBEG@std@@@std@@@2@$00@2@$00@std@@QEBAAEBU?$less@E@2@XZ
	?_Get_first@?$_Compressed_pair@U?$less@E@std@@V?$_Compressed_pair@V?$allocator@U?$_Tree_node@U?$pair@$$CBEPEAE@std@@PEAX@std@@@std@@V?$_Tree_val@U?$_Tree_simple_types@U?$pair@$$CBEPEAE@std@@@std@@@2@$00@2@$00@std@@QEAAAEAU?$less@E@2@XZ
	?_Get_first@?$_Compressed_pair@U?$less@E@std@@V?$_Compressed_pair@V?$allocator@U?$_Tree_node@U?$pair@$$CBEPEAE@std@@PEAX@std@@@std@@V?$_Tree_val@U?$_Tree_simple_types@U?$pair@$$CBEPEAE@std@@@std@@@2@$00@2@$00@std@@QEBAAEBU?$less@E@2@XZ
	?_Get_first@?$_Compressed_pair@V?$allocator@E@std@@V?$_Vector_val@U?$_Simple_types@E@std@@@2@$00@std@@QEAAAEAV?$allocator@E@2@XZ
	?_Get_first@?$_Compressed_pair@V?$allocator@E@std@@V?$_Vector_val@U?$_Simple_types@E@std@@@2@$00@std@@QEBAAEBV?$allocator@E@2@XZ
	?_Get_first@?$_Compressed_pair@V?$allocator@U?$_Tree_node@U?$pair@$$CBEG@std@@PEAX@std@@@std@@V?$_Tree_val@U?$_Tree_simple_types@U?$pair@$$CBEG@std@@@std@@@2@$00@std@@QEAAAEAV?$allocator@U?$_Tree_node@U?$pair@$$CBEG@std@@PEAX@std@@@2@XZ
	?_Get_first@?$_Compressed_pair@V?$allocator@U?$_Tree_node@U?$pair@$$CBEG@std@@PEAX@std@@@std@@V?$_Tree_val@U?$_Tree_simple_types@U?$pair@$$CBEG@std@@@std@@@2@$00@std@@QEBAAEBV?$allocator@U?$_Tree_node@U?$pair@$$CBEG@std@@PEAX@std@@@2@XZ
	?_Get_first@?$_Compressed_pair@V?$allocator@U?$_Tree_node@U?$pair@$$CBEPEAE@std@@PEAX@std@@@std@@V?$_Tree_val@U?$_Tree_simple_types@U?$pair@$$CBEPEAE@std@@@std@@@2@$00@std@@QEAAAEAV?$allocator@U?$_Tree_node@U?$pair@$$CBEPEAE@std@@PEAX@std@@@2@XZ
	?_Get_first@?$_Compressed_pair@V?$allocator@U?$_Tree_node@U?$pair@$$CBEPEAE@std@@PEAX@std@@@std@@V?$_Tree_val@U?$_Tree_simple_types@U?$pair@$$CBEPEAE@std@@@std@@@2@$00@std@@QEBAAEBV?$allocator@U?$_Tree_node@U?$pair@$$CBEPEAE@std@@PEAX@std@@@2@XZ
	?_Get_scary@?$_Tree@V?$_Tmap_traits@EGU?$less@E@std@@V?$allocator@U?$pair@$$CBEG@std@@@2@$0A@@std@@@std@@IEAAPEAV?$_Tree_val@U?$_Tree_simple_types@U?$pair@$$CBEG@std@@@std@@@2@XZ
	?_Get_scary@?$_Tree@V?$_Tmap_traits@EGU?$less@E@std@@V?$allocator@U?$pair@$$CBEG@std@@@2@$0A@@std@@@std@@IEBAPEBV?$_Tree_val@U?$_Tree_simple_types@U?$pair@$$CBEG@std@@@std@@@2@XZ
	?_Get_scary@?$_Tree@V?$_Tmap_traits@EPEAEU?$less@E@std@@V?$allocator@U?$pair@$$CBEPEAE@std@@@2@$0A@@std@@@std@@IEAAPEAV?$_Tree_val@U?$_Tree_simple_types@U?$pair@$$CBEPEAE@std@@@std@@@2@XZ
	?_Get_scary@?$_Tree@V?$_Tmap_traits@EPEAEU?$less@E@std@@V?$allocator@U?$pair@$$CBEPEAE@std@@@2@$0A@@std@@@std@@IEBAPEBV?$_Tree_val@U?$_Tree_simple_types@U?$pair@$$CBEPEAE@std@@@std@@@2@XZ
	?_Getal@?$_Tree@V?$_Tmap_traits@EGU?$less@E@std@@V?$allocator@U?$pair@$$CBEG@std@@@2@$0A@@std@@@std@@IEAAAEAV?$allocator@U?$_Tree_node@U?$pair@$$CBEG@std@@PEAX@std@@@2@XZ
	?_Getal@?$_Tree@V?$_Tmap_traits@EGU?$less@E@std@@V?$allocator@U?$pair@$$CBEG@std@@@2@$0A@@std@@@std@@IEBAAEBV?$allocator@U?$_Tree_node@U?$pair@$$CBEG@std@@PEAX@std@@@2@XZ
	?_Getal@?$_Tree@V?$_Tmap_traits@EPEAEU?$less@E@std@@V?$allocator@U?$pair@$$CBEPEAE@std@@@2@$0A@@std@@@std@@IEAAAEAV?$allocator@U?$_Tree_node@U?$pair@$$CBEPEAE@std@@PEAX@std@@@2@XZ
	?_Getal@?$_Tree@V?$_Tmap_traits@EPEAEU?$less@E@std@@V?$allocator@U?$pair@$$CBEPEAE@std@@@2@$0A@@std@@@std@@IEBAAEBV?$allocator@U?$_Tree_node@U?$pair@$$CBEPEAE@std@@PEAX@std@@@2@XZ
	?_Getal@?$vector@EV?$allocator@E@std@@@std@@AEAAAEAV?$allocator@E@2@XZ
	?_Getal@?$vector@EV?$allocator@E@std@@@std@@AEBAAEBV?$allocator@E@2@XZ
	?_Getcomp@?$_Tree@V?$_Tmap_traits@EGU?$less@E@std@@V?$allocator@U?$pair@$$CBEG@std@@@2@$0A@@std@@@std@@IEAAAEAU?$less@E@2@XZ
	?_Getcomp@?$_Tree@V?$_Tmap_traits@EGU?$less@E@std@@V?$allocator@U?$pair@$$CBEG@std@@@2@$0A@@std@@@std@@IEBAAEBU?$less@E@2@XZ
	?_Getcomp@?$_Tree@V?$_Tmap_traits@EPEAEU?$less@E@std@@V?$allocator@U?$pair@$$CBEPEAE@std@@@2@$0A@@std@@@std@@IEAAAEAU?$less@E@2@XZ
	?_Getcomp@?$_Tree@V?$_Tmap_traits@EPEAEU?$less@E@std@@V?$allocator@U?$pair@$$CBEPEAE@std@@@2@$0A@@std@@@std@@IEBAAEBU?$less@E@2@XZ
	?_Insert_node@?$_Tree_val@U?$_Tree_simple_types@U?$pair@$$CBEG@std@@@std@@@std@@QEAAPEAU?$_Tree_node@U?$pair@$$CBEG@std@@PEAX@2@U?$_Tree_id@PEAU?$_Tree_node@U?$pair@$$CBEG@std@@PEAX@std@@@2@QEAU32@@Z
	?_Insert_node@?$_Tree_val@U?$_Tree_simple_types@U?$pair@$$CBEPEAE@std@@@std@@@std@@QEAAPEAU?$_Tree_node@U?$pair@$$CBEPEAE@std@@PEAX@2@U?$_Tree_id@PEAU?$_Tree_node@U?$pair@$$CBEPEAE@std@@PEAX@std@@@2@QEAU32@@Z
	?_Lrotate@?$_Tree_val@U?$_Tree_simple_types@U?$pair@$$CBEG@std@@@std@@@std@@QEAAXPEAU?$_Tree_node@U?$pair@$$CBEG@std@@PEAX@2@@Z
	?_Lrotate@?$_Tree_val@U?$_Tree_simple_types@U?$pair@$$CBEPEAE@std@@@std@@@std@@QEAAXPEAU?$_Tree_node@U?$pair@$$CBEPEAE@std@@PEAX@2@@Z
	?_Max@?$_Tree_val@U?$_Tree_simple_types@U?$pair@$$CBEG@std@@@std@@@std@@SAPEAU?$_Tree_node@U?$pair@$$CBEG@std@@PEAX@2@PEAU32@@Z
	?_Max@?$_Tree_val@U?$_Tree_simple_types@U?$pair@$$CBEPEAE@std@@@std@@@std@@SAPEAU?$_Tree_node@U?$pair@$$CBEPEAE@std@@PEAX@2@PEAU32@@Z
	?_Min@?$_Tree_val@U?$_Tree_simple_types@U?$pair@$$CBEG@std@@@std@@@std@@SAPEAU?$_Tree_node@U?$pair@$$CBEG@std@@PEAX@2@PEAU32@@Z
	?_Min@?$_Tree_val@U?$_Tree_simple_types@U?$pair@$$CBEPEAE@std@@@std@@@std@@SAPEAU?$_Tree_node@U?$pair@$$CBEPEAE@std@@PEAX@2@PEAU32@@Z
	?_Orphan_all@_Container_base0@std@@QEAAXXZ
	?_Orphan_ptr@?$_Tree_val@U?$_Tree_simple_types@U?$pair@$$CBEG@std@@@std@@@std@@QEAAXQEAU?$_Tree_node@U?$pair@$$CBEG@std@@PEAX@2@@Z
	?_Orphan_ptr@?$_Tree_val@U?$_Tree_simple_types@U?$pair@$$CBEPEAE@std@@@std@@@std@@QEAAXQEAU?$_Tree_node@U?$pair@$$CBEPEAE@std@@PEAX@2@@Z
	?_Orphan_range@?$vector@EV?$allocator@E@std@@@std@@AEBAXPEAE0@Z
	?_Release@?$_Alloc_construct_ptr@V?$allocator@U?$_Tree_node@U?$pair@$$CBEG@std@@PEAX@std@@@std@@@std@@QEAAPEAU?$_Tree_node@U?$pair@$$CBEG@std@@PEAX@2@XZ
	?_Release@?$_Alloc_construct_ptr@V?$allocator@U?$_Tree_node@U?$pair@$$CBEPEAE@std@@PEAX@std@@@std@@@std@@QEAAPEAU?$_Tree_node@U?$pair@$$CBEPEAE@std@@PEAX@2@XZ
	?_Release@?$_Tree_head_scoped_ptr@V?$allocator@U?$_Tree_node@U?$pair@$$CBEG@std@@PEAX@std@@@std@@V?$_Tree_val@U?$_Tree_simple_types@U?$pair@$$CBEG@std@@@std@@@2@@std@@QEAAXXZ
	?_Release@?$_Tree_head_scoped_ptr@V?$allocator@U?$_Tree_node@U?$pair@$$CBEPEAE@std@@PEAX@std@@@std@@V?$_Tree_val@U?$_Tree_simple_types@U?$pair@$$CBEPEAE@std@@@std@@@2@@std@@QEAAXXZ
	?_Release@?$_Uninitialized_backout_al@V?$allocator@E@std@@@std@@QEAAPEAEXZ
	?_Release@_Fake_proxy_ptr_impl@std@@QEAAXXZ
	?_Rrotate@?$_Tree_val@U?$_Tree_simple_types@U?$pair@$$CBEG@std@@@std@@@std@@QEAAXPEAU?$_Tree_node@U?$pair@$$CBEG@std@@PEAX@2@@Z
	?_Rrotate@?$_Tree_val@U?$_Tree_simple_types@U?$pair@$$CBEPEAE@std@@@std@@@std@@QEAAXPEAU?$_Tree_node@U?$pair@$$CBEPEAE@std@@PEAX@2@@Z
	?_Seek_to@?$_Vector_const_iterator@V?$_Vector_val@U?$_Simple_types@E@std@@@std@@@std@@QEAAXPEBE@Z
	?_Throw_bad_array_new_length@std@@YAXXZ
	?_Throw_tree_length_error@std@@YAXXZ
	?_Tidy@?$vector@EV?$allocator@E@std@@@std@@AEAAXXZ
	?_Umove@?$vector@EV?$allocator@E@std@@@std@@AEAAPEAEPEAE00@Z
	?_Umove_if_noexcept1@?$vector@EV?$allocator@E@std@@@std@@AEAAXPEAE00U?$integral_constant@_N$00@2@@Z
	?_Umove_if_noexcept@?$vector@EV?$allocator@E@std@@@std@@AEAAXPEAE00@Z
	?_Unchecked_begin@?$_Tree@V?$_Tmap_traits@EGU?$less@E@std@@V?$allocator@U?$pair@$$CBEG@std@@@2@$0A@@std@@@std@@QEAA?AV?$_Tree_unchecked_iterator@V?$_Tree_val@U?$_Tree_simple_types@U?$pair@$$CBEG@std@@@std@@@std@@@2@XZ
	?_Unchecked_begin@?$_Tree@V?$_Tmap_traits@EPEAEU?$less@E@std@@V?$allocator@U?$pair@$$CBEPEAE@std@@@2@$0A@@std@@@std@@QEAA?AV?$_Tree_unchecked_iterator@V?$_Tree_val@U?$_Tree_simple_types@U?$pair@$$CBEPEAE@std@@@std@@@std@@@2@XZ
	?_Unwrapped@?$_Vector_iterator@V?$_Vector_val@U?$_Simple_types@E@std@@@std@@@std@@QEBAPEAEXZ
	?_Xlength@?$vector@EV?$allocator@E@std@@@std@@CAXXZ
	?action@Protocol1PacketHandler@dynamixel@@UEAAHPEAVPortHandler@2@E@Z
	?action@Protocol2PacketHandler@dynamixel@@UEAAHPEAVPortHandler@2@E@Z
	?addParam@GroupBulkRead@dynamixel@@QEAA_NEGG@Z
	?addParam@GroupBulkWrite@dynamixel@@QEAA_NEGGPEAE@Z
	?addParam@GroupSyncRead@dynamixel@@QEAA_NE@Z
	?addParam@GroupSyncWrite@dynamixel@@QEAA_NEPEAE@Z
	?addStuffing@Protocol2PacketHandler@dynamixel@@AEAAXPEAE@Z
	?allocate@?$allocator@E@std@@QEAAPEAE_K@Z
	?allocate@?$allocator@U?$_Tree_node@U?$pair@$$CBEG@std@@PEAX@std@@@std@@QEAAPEAU?$_Tree_node@U?$pair@$$CBEG@std@@PEAX@2@_K@Z
	?allocate@?$allocator@U?$_Tree_node@U?$pair@$$CBEPEAE@std@@PEAX@std@@@std@@QEAAPEAU?$_Tree_node@U?$pair@$$CBEPEAE@std@@PEAX@2@_K@Z
	?begin@?$vector@EV?$allocator@E@std@@@std@@QEAA?AV?$_Vector_iterator@V?$_Vector_val@U?$_Simple_types@E@std@@@std@@@2@XZ
	?broadcastPing@Protocol1PacketHandler@dynamixel@@UEAAHPEAVPortHandler@2@AEAV?$vector@EV?$allocator@E@std@@@std@@@Z
	?broadcastPing@Protocol2PacketHandler@dynamixel@@UEAAHPEAVPortHandler@2@AEAV?$vector@EV?$allocator@E@std@@@std@@@Z
	?bulkReadTx@Protocol1PacketHandler@dynamixel@@UEAAHPEAVPortHandler@2@PEAEG@Z
	?bulkReadTx@Protocol2PacketHandler@dynamixel@@UEAAHPEAVPortHandler@2@PEAEG@Z
	?bulkWriteTxOnly@Protocol1PacketHandler@dynamixel@@UEAAHPEAVPortHandler@2@PEAEG@Z
	?bulkWriteTxOnly@Protocol2PacketHandler@dynamixel@@UEAAHPEAVPortHandler@2@PEAEG@Z
	?capacity@?$vector@EV?$allocator@E@std@@@std@@QEBA_KXZ
	?changeParam@GroupBulkWrite@dynamixel@@QEAA_NEGGPEAE@Z
	?changeParam@GroupSyncWrite@dynamixel@@QEAA_NEPEAE@Z
	?clear@?$_Tree@V?$_Tmap_traits@EGU?$less@E@std@@V?$allocator@U?$pair@$$CBEG@std@@@2@$0A@@std@@@std@@QEAAXXZ
	?clear@?$_Tree@V?$_Tmap_traits@EPEAEU?$less@E@std@@V?$allocator@U?$pair@$$CBEPEAE@std@@@2@$0A@@std@@@std@@QEAAXXZ
	?clear@?$vector@EV?$allocator@E@std@@@std@@QEAAXXZ
	?clearMultiTurn@Protocol1PacketHandler@dynamixel@@UEAAHPEAVPortHandler@2@EPEAE@Z
	?clearMultiTurn@Protocol2PacketHandler@dynamixel@@UEAAHPEAVPortHandler@2@EPEAE@Z
	?clearParam@GroupBulkRead@dynamixel@@QEAAXXZ
	?clearParam@GroupBulkWrite@dynamixel@@QEAAXXZ
	?clearParam@GroupSyncRead@dynamixel@@QEAAXXZ
	?clearParam@GroupSyncWrite@dynamixel@@QEAAXXZ
	?clearPort@PortHandlerWindows@dynamixel@@UEAAXXZ
	?closePort@PortHandlerWindows@dynamixel@@UEAAXXZ
	?deallocate@?$_Default_allocator_traits@V?$allocator@U?$_Tree_node@U?$pair@$$CBEG@std@@PEAX@std@@@std@@@std@@SAXAEAV?$allocator@U?$_Tree_node@U?$pair@$$CBEG@std@@PEAX@std@@@2@QEAU?$_Tree_node@U?$pair@$$CBEG@std@@PEAX@2@_K@Z
	?deallocate@?$_Default_allocator_traits@V?$allocator@U?$_Tree_node@U?$pair@$$CBEPEAE@std@@PEAX@std@@@std@@@std@@SAXAEAV?$allocator@U?$_Tree_node@U?$pair@$$CBEPEAE@std@@PEAX@std@@@2@QEAU?$_Tree_node@U?$pair@$$CBEPEAE@std@@PEAX@2@_K@Z
	?deallocate@?$allocator@E@std@@QEAAXQEAE_K@Z
	?deallocate@?$allocator@U?$_Tree_node@U?$pair@$$CBEG@std@@PEAX@std@@@std@@QEAAXQEAU?$_Tree_node@U?$pair@$$CBEG@std@@PEAX@2@_K@Z
	?deallocate@?$allocator@U?$_Tree_node@U?$pair@$$CBEPEAE@std@@PEAX@std@@@std@@QEAAXQEAU?$_Tree_node@U?$pair@$$CBEPEAE@std@@PEAX@2@_K@Z
	?end@?$_Tree@V?$_Tmap_traits@EPEAEU?$less@E@std@@V?$allocator@U?$pair@$$CBEPEAE@std@@@2@$0A@@std@@@std@@QEAA?AV?$_Tree_iterator@V?$_Tree_val@U?$_Tree_simple_types@U?$pair@$$CBEPEAE@std@@@std@@@std@@@2@XZ
	?end@?$vector@EV?$allocator@E@std@@@std@@QEAA?AV?$_Vector_iterator@V?$_Vector_val@U?$_Simple_types@E@std@@@std@@@2@XZ
	?erase@?$_Tree@V?$_Tmap_traits@EGU?$less@E@std@@V?$allocator@U?$pair@$$CBEG@std@@@2@$0A@@std@@@std@@QEAA_KAEBE@Z
	?erase@?$_Tree@V?$_Tmap_traits@EPEAEU?$less@E@std@@V?$allocator@U?$pair@$$CBEPEAE@std@@@2@$0A@@std@@@std@@QEAA_KAEBE@Z
	?erase@?$vector@EV?$allocator@E@std@@@std@@QEAA?AV?$_Vector_iterator@V?$_Vector_val@U?$_Simple_types@E@std@@@std@@@2@V?$_Vector_const_iterator@V?$_Vector_val@U?$_Simple_types@E@std@@@std@@@2@@Z
	?factoryReset@Protocol1PacketHandler@dynamixel@@UEAAHPEAVPortHandler@2@EEPEAE@Z
	?factoryReset@Protocol2PacketHandler@dynamixel@@UEAAHPEAVPortHandler@2@EEPEAE@Z
	?find@?$_Tree@V?$_Tmap_traits@EPEAEU?$less@E@std@@V?$allocator@U?$pair@$$CBEPEAE@std@@@2@$0A@@std@@@std@@QEAA?AV?$_Tree_iterator@V?$_Tree_val@U?$_Tree_simple_types@U?$pair@$$CBEPEAE@std@@@std@@@std@@@2@AEBE@Z
	?getBaudRate@PortHandlerWindows@dynamixel@@UEAAHXZ
	?getBytesAvailable@PortHandlerWindows@dynamixel@@UEAAHXZ
	?getCurrentTime@PortHandlerWindows@dynamixel@@AEAANXZ
	?getData@GroupBulkRead@dynamixel@@QEAAIEGG@Z
	?getData@GroupSyncRead@dynamixel@@QEAAIEGG@Z
	?getError@GroupBulkRead@dynamixel@@QEAA_NEPEAE@Z
	?getError@GroupSyncRead@dynamixel@@QEAA_NEPEAE@Z
	?getInstance@Protocol1PacketHandler@dynamixel@@SAPEAV12@XZ
	?getInstance@Protocol2PacketHandler@dynamixel@@SAPEAV12@XZ
	?getPacketHandler@GroupBulkRead@dynamixel@@QEAAPEAVPacketHandler@2@XZ
	?getPacketHandler@GroupBulkWrite@dynamixel@@QEAAPEAVPacketHandler@2@XZ
	?getPacketHandler@GroupSyncRead@dynamixel@@QEAAPEAVPacketHandler@2@XZ
	?getPacketHandler@GroupSyncWrite@dynamixel@@QEAAPEAVPacketHandler@2@XZ
	?getPacketHandler@PacketHandler@dynamixel@@SAPEAV12@M@Z
	?getPortHandler@GroupBulkRead@dynamixel@@QEAAPEAVPortHandler@2@XZ
	?getPortHandler@GroupBulkWrite@dynamixel@@QEAAPEAVPortHandler@2@XZ
	?getPortHandler@GroupSyncRead@dynamixel@@QEAAPEAVPortHandler@2@XZ
	?getPortHandler@GroupSyncWrite@dynamixel@@QEAAPEAVPortHandler@2@XZ
	?getPortHandler@PortHandler@dynamixel@@SAPEAV12@PEBD@Z
	?getPortName@PortHandlerWindows@dynamixel@@UEAAPEADXZ
	?getProtocolVersion@Protocol1PacketHandler@dynamixel@@UEAAMXZ
	?getProtocolVersion@Protocol2PacketHandler@dynamixel@@UEAAMXZ
	?getRxPacketError@Protocol1PacketHandler@dynamixel@@UEAAPEBDE@Z
	?getRxPacketError@Protocol2PacketHandler@dynamixel@@UEAAPEBDE@Z
	?getTimeSinceStart@PortHandlerWindows@dynamixel@@AEAANXZ
	?getTxRxResult@Protocol1PacketHandler@dynamixel@@UEAAPEBDH@Z
	?getTxRxResult@Protocol2PacketHandler@dynamixel@@UEAAPEBDH@Z
	?isAvailable@GroupBulkRead@dynamixel@@QEAA_NEGG@Z
	?isAvailable@GroupSyncRead@dynamixel@@QEAA_NEGG@Z
	?isPacketTimeout@PortHandlerWindows@dynamixel@@UEAA_NXZ
	?key_comp@?$_Tree@V?$_Tmap_traits@EGU?$less@E@std@@V?$allocator@U?$pair@$$CBEG@std@@@2@$0A@@std@@@std@@QEBA?AU?$less@E@2@XZ
	?key_comp@?$_Tree@V?$_Tmap_traits@EPEAEU?$less@E@std@@V?$allocator@U?$pair@$$CBEPEAE@std@@@2@$0A@@std@@@std@@QEBA?AU?$less@E@2@XZ
	?makeParam@GroupBulkRead@dynamixel@@AEAAXXZ
	?makeParam@GroupBulkWrite@dynamixel@@AEAAXXZ
	?makeParam@GroupSyncRead@dynamixel@@AEAAXXZ
	?makeParam@GroupSyncWrite@dynamixel@@AEAAXXZ
	?max@?$numeric_limits@_J@std@@SA_JXZ
	?max_size@?$_Default_allocator_traits@V?$allocator@E@std@@@std@@SA_KAEBV?$allocator@E@2@@Z
	?max_size@?$_Default_allocator_traits@V?$allocator@U?$_Tree_node@U?$pair@$$CBEG@std@@PEAX@std@@@std@@@std@@SA_KAEBV?$allocator@U?$_Tree_node@U?$pair@$$CBEG@std@@PEAX@std@@@2@@Z
	?max_size@?$_Default_allocator_traits@V?$allocator@U?$_Tree_node@U?$pair@$$CBEPEAE@std@@PEAX@std@@@std@@@std@@SA_KAEBV?$allocator@U?$_Tree_node@U?$pair@$$CBEPEAE@std@@PEAX@std@@@2@@Z
	?max_size@?$_Tree@V?$_Tmap_traits@EGU?$less@E@std@@V?$allocator@U?$pair@$$CBEG@std@@@2@$0A@@std@@@std@@QEBA_KXZ
	?max_size@?$_Tree@V?$_Tmap_traits@EPEAEU?$less@E@std@@V?$allocator@U?$pair@$$CBEPEAE@std@@@2@$0A@@std@@@std@@QEBA_KXZ
	?max_size@?$vector@EV?$allocator@E@std@@@std@@QEBA_KXZ
	?memchr@@YAPEAXPEAXH_K@Z
	?openPort@PortHandlerWindows@dynamixel@@UEAA_NXZ
	?ping@Protocol1PacketHandler@dynamixel@@UEAAHPEAVPortHandler@2@EPEAE@Z
	?ping@Protocol1PacketHandler@dynamixel@@UEAAHPEAVPortHandler@2@EPEAGPEAE@Z
	?ping@Protocol2PacketHandler@dynamixel@@UEAAHPEAVPortHandler@2@EPEAE@Z
	?ping@Protocol2PacketHandler@dynamixel@@UEAAHPEAVPortHandler@2@EPEAGPEAE@Z
	?push_back@?$vector@EV?$allocator@E@std@@@std@@QEAAXAEBE@Z
	?read1ByteRx@Protocol1PacketHandler@dynamixel@@UEAAHPEAVPortHandler@2@EPEAE1@Z
	?read1ByteRx@Protocol2PacketHandler@dynamixel@@UEAAHPEAVPortHandler@2@EPEAE1@Z
	?read1ByteTx@Protocol1PacketHandler@dynamixel@@UEAAHPEAVPortHandler@2@EG@Z
	?read1ByteTx@Protocol2PacketHandler@dynamixel@@UEAAHPEAVPortHandler@2@EG@Z
	?read1ByteTxRx@Protocol1PacketHandler@dynamixel@@UEAAHPEAVPortHandler@2@EGPEAE1@Z
	?read1ByteTxRx@Protocol2PacketHandler@dynamixel@@UEAAHPEAVPortHandler@2@EGPEAE1@Z
	?read2ByteRx@Protocol1PacketHandler@dynamixel@@UEAAHPEAVPortHandler@2@EPEAGPEAE@Z
	?read2ByteRx@Protocol2PacketHandler@dynamixel@@UEAAHPEAVPortHandler@2@EPEAGPEAE@Z
	?read2ByteTx@Protocol1PacketHandler@dynamixel@@UEAAHPEAVPortHandler@2@EG@Z
	?read2ByteTx@Protocol2PacketHandler@dynamixel@@UEAAHPEAVPortHandler@2@EG@Z
	?read2ByteTxRx@Protocol1PacketHandler@dynamixel@@UEAAHPEAVPortHandler@2@EGPEAGPEAE@Z
	?read2ByteTxRx@Protocol2PacketHandler@dynamixel@@UEAAHPEAVPortHandler@2@EGPEAGPEAE@Z
	?read4ByteRx@Protocol1PacketHandler@dynamixel@@UEAAHPEAVPortHandler@2@EPEAIPEAE@Z
	?read4ByteRx@Protocol2PacketHandler@dynamixel@@UEAAHPEAVPortHandler@2@EPEAIPEAE@Z
	?read4ByteTx@Protocol1PacketHandler@dynamixel@@UEAAHPEAVPortHandler@2@EG@Z
	?read4ByteTx@Protocol2PacketHandler@dynamixel@@UEAAHPEAVPortHandler@2@EG@Z
	?read4ByteTxRx@Protocol1PacketHandler@dynamixel@@UEAAHPEAVPortHandler@2@EGPEAIPEAE@Z
	?read4ByteTxRx@Protocol2PacketHandler@dynamixel@@UEAAHPEAVPortHandler@2@EGPEAIPEAE@Z
	?readPort@PortHandlerWindows@dynamixel@@UEAAHPEAEH@Z
	?readRx@Protocol1PacketHandler@dynamixel@@UEAAHPEAVPortHandler@2@EGPEAE1@Z
	?readRx@Protocol2PacketHandler@dynamixel@@UEAAHPEAVPortHandler@2@EGPEAE1@Z
	?readTx@Protocol1PacketHandler@dynamixel@@UEAAHPEAVPortHandler@2@EGG@Z
	?readTx@Protocol2PacketHandler@dynamixel@@UEAAHPEAVPortHandler@2@EGG@Z
	?readTxRx@Protocol1PacketHandler@dynamixel@@UEAAHPEAVPortHandler@2@EGGPEAE1@Z
	?readTxRx@Protocol2PacketHandler@dynamixel@@UEAAHPEAVPortHandler@2@EGGPEAE1@Z
	?reboot@Protocol1PacketHandler@dynamixel@@UEAAHPEAVPortHandler@2@EPEAE@Z
	?reboot@Protocol2PacketHandler@dynamixel@@UEAAHPEAVPortHandler@2@EPEAE@Z
	?regWriteTxOnly@Protocol1PacketHandler@dynamixel@@UEAAHPEAVPortHandler@2@EGGPEAE@Z
	?regWriteTxOnly@Protocol2PacketHandler@dynamixel@@UEAAHPEAVPortHandler@2@EGGPEAE@Z
	?regWriteTxRx@Protocol1PacketHandler@dynamixel@@UEAAHPEAVPortHandler@2@EGGPEAE1@Z
	?regWriteTxRx@Protocol2PacketHandler@dynamixel@@UEAAHPEAVPortHandler@2@EGGPEAE1@Z
	?removeParam@GroupBulkRead@dynamixel@@QEAAXE@Z
	?removeParam@GroupBulkWrite@dynamixel@@QEAAXE@Z
	?removeParam@GroupSyncRead@dynamixel@@QEAAXE@Z
	?removeParam@GroupSyncWrite@dynamixel@@QEAAXE@Z
	?removeStuffing@Protocol2PacketHandler@dynamixel@@AEAAXPEAE@Z
	?rxPacket@GroupBulkRead@dynamixel@@QEAAHXZ
	?rxPacket@GroupSyncRead@dynamixel@@QEAAHXZ
	?rxPacket@Protocol1PacketHandler@dynamixel@@UEAAHPEAVPortHandler@2@PEAE@Z
	?rxPacket@Protocol2PacketHandler@dynamixel@@UEAAHPEAVPortHandler@2@PEAE@Z
	?select_on_container_copy_construction@?$_Default_allocator_traits@V?$allocator@E@std@@@std@@SA?AV?$allocator@E@2@AEBV32@@Z
	?select_on_container_copy_construction@?$_Default_allocator_traits@V?$allocator@U?$_Tree_node@U?$pair@$$CBEG@std@@PEAX@std@@@std@@@std@@SA?AV?$allocator@U?$_Tree_node@U?$pair@$$CBEG@std@@PEAX@std@@@2@AEBV32@@Z
	?select_on_container_copy_construction@?$_Default_allocator_traits@V?$allocator@U?$_Tree_node@U?$pair@$$CBEPEAE@std@@PEAX@std@@@std@@@std@@SA?AV?$allocator@U?$_Tree_node@U?$pair@$$CBEPEAE@std@@PEAX@std@@@2@AEBV32@@Z
	?setBaudRate@PortHandlerWindows@dynamixel@@UEAA_NH@Z
	?setPacketTimeout@PortHandlerWindows@dynamixel@@UEAAXG@Z
	?setPacketTimeout@PortHandlerWindows@dynamixel@@UEAAXN@Z
	?setPortName@PortHandlerWindows@dynamixel@@UEAAXPEBD@Z
	?setupPort@PortHandlerWindows@dynamixel@@AEAA_NH@Z
	?size@?$vector@EV?$allocator@E@std@@@std@@QEBA_KXZ
	?syncReadTx@Protocol1PacketHandler@dynamixel@@UEAAHPEAVPortHandler@2@GGPEAEG@Z
	?syncReadTx@Protocol2PacketHandler@dynamixel@@UEAAHPEAVPortHandler@2@GGPEAEG@Z
	?syncWriteTxOnly@Protocol1PacketHandler@dynamixel@@UEAAHPEAVPortHandler@2@GGPEAEG@Z
	?syncWriteTxOnly@Protocol2PacketHandler@dynamixel@@UEAAHPEAVPortHandler@2@GGPEAEG@Z
	?txPacket@GroupBulkRead@dynamixel@@QEAAHXZ
	?txPacket@GroupBulkWrite@dynamixel@@QEAAHXZ
	?txPacket@GroupSyncRead@dynamixel@@QEAAHXZ
	?txPacket@GroupSyncWrite@dynamixel@@QEAAHXZ
	?txPacket@Protocol1PacketHandler@dynamixel@@UEAAHPEAVPortHandler@2@PEAE@Z
	?txPacket@Protocol2PacketHandler@dynamixel@@UEAAHPEAVPortHandler@2@PEAE@Z
	?txRxPacket@GroupBulkRead@dynamixel@@QEAAHXZ
	?txRxPacket@GroupSyncRead@dynamixel@@QEAAHXZ
	?txRxPacket@Protocol1PacketHandler@dynamixel@@UEAAHPEAVPortHandler@2@PEAE11@Z
	?txRxPacket@Protocol2PacketHandler@dynamixel@@UEAAHPEAVPortHandler@2@PEAE11@Z
	?updateCRC@Protocol2PacketHandler@dynamixel@@AEAAGGPEAEG@Z
	?what@exception@std@@UEBAPEBDXZ
	?write1ByteTxOnly@Protocol1PacketHandler@dynamixel@@UEAAHPEAVPortHandler@2@EGE@Z
	?write1ByteTxOnly@Protocol2PacketHandler@dynamixel@@UEAAHPEAVPortHandler@2@EGE@Z
	?write1ByteTxRx@Protocol1PacketHandler@dynamixel@@UEAAHPEAVPortHandler@2@EGEPEAE@Z
	?write1ByteTxRx@Protocol2PacketHandler@dynamixel@@UEAAHPEAVPortHandler@2@EGEPEAE@Z
	?write2ByteTxOnly@Protocol1PacketHandler@dynamixel@@UEAAHPEAVPortHandler@2@EGG@Z
	?write2ByteTxOnly@Protocol2PacketHandler@dynamixel@@UEAAHPEAVPortHandler@2@EGG@Z
	?write2ByteTxRx@Protocol1PacketHandler@dynamixel@@UEAAHPEAVPortHandler@2@EGGPEAE@Z
	?write2ByteTxRx@Protocol2PacketHandler@dynamixel@@UEAAHPEAVPortHandler@2@EGGPEAE@Z
	?write4ByteTxOnly@Protocol1PacketHandler@dynamixel@@UEAAHPEAVPortHandler@2@EGI@Z
	?write4ByteTxOnly@Protocol2PacketHandler@dynamixel@@UEAAHPEAVPortHandler@2@EGI@Z
	?write4ByteTxRx@Protocol1PacketHandler@dynamixel@@UEAAHPEAVPortHandler@2@EGIPEAE@Z
	?write4ByteTxRx@Protocol2PacketHandler@dynamixel@@UEAAHPEAVPortHandler@2@EGIPEAE@Z
	?writePort@PortHandlerWindows@dynamixel@@UEAAHPEAEH@Z
	?writeTxOnly@Protocol1PacketHandler@dynamixel@@UEAAHPEAVPortHandler@2@EGGPEAE@Z
	?writeTxOnly@Protocol2PacketHandler@dynamixel@@UEAAHPEAVPortHandler@2@EGGPEAE@Z
	?writeTxRx@Protocol1PacketHandler@dynamixel@@UEAAHPEAVPortHandler@2@EGGPEAE1@Z
	?writeTxRx@Protocol2PacketHandler@dynamixel@@UEAAHPEAVPortHandler@2@EGGPEAE1@Z
	__local_stdio_printf_options
	_vfprintf_l
	_vsprintf_s_l
	printf
	sprintf_s
